((dp0
S'arm_dbg_args'
p1
S'-via:"e:\\Documents\\Michiel\\Programmeren\\Marmalade\\MVSStage1\\build_mvsstage1_vc12x\\MVSStage1_vc12x_arm_debug.via" -qemu'
p2
sS'game-icf'
p3
S''
p4
sS'dist'
p5
NsS'csproj'
p6
g4
sS'module_path_append'
p7
NsS'global_path'
p8
S'e:\\documents\\michiel\\programmeren\\marmalade'
p9
sS'system_path'
p10
S'c:\\marmalade\\7.4\\s3e\\makefile_builder'
p11
sS'android_x86_dbg_args'
p12
S'../../tools/DeployTool/DeployTool.exe --dir "e:\\Documents\\Michiel\\Programmeren\\Marmalade\\MVSStage1\\build_mvsstage1_vc12x"'
p13
sS'no-emit'
p14
NsS'arm-float-abi'
p15
g4
sS'arm_rel_rtsm_args'
p16
S'-via:"e:\\Documents\\Michiel\\Programmeren\\Marmalade\\MVSStage1\\build_mvsstage1_vc12x\\MVSStage1_vc12x_arm_release.via" -qemu'
p17
sS'amd64'
p18
NsS'line-width'
p19
I80
sS'gcc_dbg_args'
p20
S'-via:"e:\\Documents\\Michiel\\Programmeren\\Marmalade\\MVSStage1\\build_mvsstage1_vc12x\\MVSStage1_vc12x_gcc_debug.via" -qemu'
p21
sS'android-x86'
p22
NsS'x86_dbg_exe'
p23
S'c:/marmalade/7.4/s3e\\win32\\s3e_simulator_debug.exe'
p24
sS'disable-runtime-checks'
p25
NsS'release'
p26
NsS'no-make'
p27
NsS'xcode-x86-build-settings'
p28
g4
sS'optimise-size'
p29
NsS'output-name-debug'
p30
g4
sS'arm-fpu'
p31
g4
sS'proj_name'
p32
S'MVSStage1_vc12x'
p33
sS'enable-stdinc'
p34
NsS'compiler'
p35
g4
sS'execute'
p36
NsS'compile-static'
p37
NsS'msvc-project'
p38
I01
sS'buildenv'
p39
S'VC12X'
p40
sS'quick'
p41
NsS'module_path'
p42
NsS'use-release-std-libs'
p43
NsS'using_perforce'
p44
I00
sS'tizen-x86'
p45
NsS'mips-s3e'
p46
NsS's3e-api-lib-name'
p47
S's3e_api_iwgl'
p48
sS'ios-no-pic'
p49
NsS'shared-arm-lib'
p50
NsS'arm-cpu'
p51
g4
sS'compile-thumb'
p52
NsS'no-ide'
p53
NsS'msvc-version'
p54
S'6.0'
p55
sS'arm'
p56
NsS'builddir'
p57
g4
sS'compile-debug-as-release'
p58
I0
sS'arm-arch'
p59
g4
sS'brief'
p60
NsS'dll'
p61
NsS'buildenv-toolset'
p62
g4
sS'version'
p63
NsS'ccache'
p64
I0
sS'offline'
p65
NsS'ios-version'
p66
g4
sS'hub_data'
p67
g4
sS'fake_vc_call'
p68
NsS'jobs'
p69
I0
sS'linkflags'
p70
NsS'debug'
p71
NsS'xcode-build-order'
p72
g4
sS'gcc_rel_rtsm_args'
p73
S'-via:"e:\\Documents\\Michiel\\Programmeren\\Marmalade\\MVSStage1\\build_mvsstage1_vc12x\\MVSStage1_vc12x_gcc_release.via" -qemu'
p74
sS'done_defaults'
p75
I1
sS'path'
p76
NsS's3e-data-dir'
p77
S'e:/Documents/Michiel/Programmeren/Marmalade/MVSStage1\\data'
p78
sS'enable-exceptions'
p79
NsS'osx-dll'
p80
NsS'extension'
p81
g4
sS'no-vc6'
p82
NsS'non-interactive'
p83
NsS'win32-console'
p84
NsS'dist-format'
p85
g4
sS's3e-force-arch'
p86
NsS'dump_defines'
p87
NsS'use_prebuilt'
p88
NsS'gcc-version'
p89
g4
sS'x86_dbg_args'
p90
S'-via:"e:\\Documents\\Michiel\\Programmeren\\Marmalade\\MVSStage1\\build_mvsstage1_vc12x\\MVSStage1_vc12x_debug.via"'
p91
sS'tizen_x86_dbg_args'
p92
g13
sS'arm-debugger'
p93
g4
sS'use_temp_extension'
p94
NsS'verbose'
p95
I0
sS'log'
p96
NsS'no-strip'
p97
NsS'rebuild'
p98
NsS'win32-simulator-dll'
p99
NsS'strict'
p100
NsS'mips_dbg_args'
p101
g13
sS'enable-global-path'
p102
NsS'cflags'
p103
NsS'dist-dir'
p104
g4
sS'xcode-arm-build-settings'
p105
g4
sS'jflags'
p106
NsS'csprojSDKRefs'
p107
g4
sS'tizen_x86_rel_exe'
p108
S'c:\\marmalade\\7.4\\s3e\\makefile_builder\\tool_launcher.exe'
p109
sS'test-assets'
p110
g4
sS'distcc'
p111
NsS'external-compiler'
p112
NsS'no-distcc'
p113
NsS'preinclude'
p114
NsS'using_sdk'
p115
I01
sS'nologo'
p116
NsS'warn-level'
p117
I2
sS'mips_dbg_exe'
p118
g109
sS'mkb_in'
p119
S'e:/Documents/Michiel/Programmeren/Marmalade/MVSStage1/MVSStage1.mkb'
p120
sS'tizen_x86_dbg_exe'
p121
g109
sS'arm_dbg_exe'
p122
S'c:/marmalade/7.4/s3e\\bin\\armdebug.exe'
p123
sS'csprojDLLRef'
p124
NsS'tizen_x86_rel_args'
p125
g13
sS'android_x86_dbg_exe'
p126
g109
sS'test-config'
p127
g4
sS'list-targets'
p128
NsS'arm_rel_exe'
p129
g109
sS'arm_rel_args'
p130
g13
sS'makedeps'
p131
NsS'android_x86_rel_exe'
p132
g109
sS'default-buildenv'
p133
S'vc12x'
p134
sS'x86_rel_exe'
p135
g24
sS'preprocess-java'
p136
NsS'mips_rel_args'
p137
g13
sS'defines'
p138
NsS'lib'
p139
NsS'global_argv'
p140
(lp141
S'C:\\Marmalade\\7.4\\s3e\\makefile_builder\\mkb.py'
p142
aS'e:/Documents/Michiel/Programmeren/Marmalade/MVSStage1/MVSStage1.mkb'
p143
aS'--buildenv=VC12X'
p144
aS'--default-buildenv=vc12x'
p145
aS'--msvc-project'
p146
asS'make'
p147
NsS'optimise-speed'
p148
NsS'internal'
p149
NsS'rvct-version'
p150
g4
sS'deploy-only'
p151
NsS'x86'
p152
NsS'deploy'
p153
g4
sS'x86_run_exe'
p154
S'c:/marmalade/7.4/s3e\\win32\\s3e_console.exe'
p155
sS'x86_rel_args'
p156
S'-via:"e:\\Documents\\Michiel\\Programmeren\\Marmalade\\MVSStage1\\build_mvsstage1_vc12x\\MVSStage1_vc12x_release.via"'
p157
sS'gcc_rel_args'
p158
g13
sS'mips'
p159
NsS'xcode-build-settings'
p160
g4
sS'incredibuild'
p161
NsS'strict-compile'
p162
NsS'use-auto-subdirs'
p163
NsS'mips_rel_exe'
p164
g109
sS'android_x86_rel_args'
p165
g13
sS'app-icf'
p166
g4
sS'deployargs'
p167
NsS'iosnativedebug'
p168
NsS'mkf_in'
p169
(lp170
S'c:\\marmalade\\7.4\\modules\\iw2d\\iw2d.mkf'
p171
aS'c:\\marmalade\\7.4\\modules\\iwgx\\iwgx.mkf'
p172
aS'c:\\marmalade\\7.4\\modules\\iwgl\\iwgl.mkf'
p173
aS'c:\\marmalade\\7.4\\modules\\iwutil\\iwutil.mkf'
p174
aS'c:\\marmalade\\7.4\\modules\\third_party\\libjpeg\\libjpeg.mkf'
p175
aS'c:\\marmalade\\7.4\\modules\\third_party\\libpng\\libpng.mkf'
p176
aS'c:\\marmalade\\7.4\\modules\\third_party\\zlib\\zlib.mkf'
p177
aS'c:\\marmalade\\7.4\\modules\\iwgeom\\iwgeom.mkf'
p178
aS'c:\\marmalade\\7.4\\modules\\iwresmanager\\iwresmanager.mkf'
p179
aS'c:\\marmalade\\7.4\\extensions\\pvrtextool\\pvrtextool.mkf'
p180
aS'c:\\marmalade\\7.4\\modules\\iwgxfont\\iwgxfont.mkf'
p181
aS'c:\\marmalade\\7.4\\modules\\third_party\\tiniconv\\tiniconv.mkf'
p182
asS'strict-mkb'
p183
NsS'executeargs'
p184
NsS'clean'
p185
NsS'no-asm'
p186
NsS'output-name'
p187
g4
sS'no-modules'
p188
NsS'find_define'
p189
g4
s(dp190
S'c:\\marmalade\\7.4\\s3e\\makefile_builder\\plugins\\Emitter.pyc'
p191
F1411758008.0
sS'c:\\marmalade\\7.4\\s3e\\makefile_builder\\templates\\ws8_ext_sln.pyc'
p192
F1411758010.0
sS'c:\\marmalade\\7.4\\s3e\\makefile_builder\\templates\\MainWindow.xib'
p193
F1411756764.0
sS'c:\\marmalade\\7.4\\s3e\\makefile_builder\\templates\\template.suo'
p194
F1411756764.0
sS'c:\\marmalade\\7.4\\s3e\\makefile_builder\\plugins\\xcode4_schememanagement.py'
p195
F1411756764.0
sS'c:\\marmalade\\7.4\\s3e\\makefile_builder\\templates\\ws81_sln.pyc'
p196
F1411758010.0
sS'c:\\marmalade\\7.4\\s3e\\makefile_builder\\templates\\win8_ext_csproj.pyc'
p197
F1411758010.0
sS'c:\\marmalade\\7.4\\s3e\\makefile_builder\\mkb_option.pyc'
p198
F1411758008.0
sS'c:\\marmalade\\7.4\\s3e\\makefile_builder\\plugins\\s3e_xcode.py'
p199
F1411756764.0
sS'c:\\marmalade\\7.4\\s3e\\makefile_builder\\plugins\\s3e_scons.pyc'
p200
F1411758008.0
sS'c:\\marmalade\\7.4\\s3e\\makefile_builder\\templates\\win8_vcxproj.pyc'
p201
F1411758010.0
sS'c:\\marmalade\\7.4\\s3e\\makefile_builder\\plugins\\null.pyc'
p202
F1411758008.0
sS'c:\\marmalade\\7.4\\s3e\\makefile_builder\\templates\\vc8_user.pyc'
p203
F1411758010.0
sS'c:\\marmalade\\7.4\\s3e\\makefile_builder\\templates\\wp81_ext_sln.pyc'
p204
F1411758010.0
sS'c:\\marmalade\\7.4\\s3e\\makefile_builder\\templates\\scons.pyc'
p205
F1411758010.0
sS'c:\\marmalade\\7.4\\s3e\\makefile_builder\\templates\\wp8_ext_csproj.pyc'
p206
F1411758010.0
sS'c:\\marmalade\\7.4\\s3e\\makefile_builder\\templates\\xcode_pbxuser.py'
p207
F1411756766.0
sS'c:\\marmalade\\7.4\\s3e\\makefile_builder\\plugins\\s3e_qmake.py'
p208
F1411756764.0
sS'c:\\marmalade\\7.4\\s3e\\makefile_builder\\plugins\\iphone.pyc'
p209
F1411758010.0
sS'c:\\marmalade\\7.4\\s3e\\makefile_builder\\templates\\ws81_ext_csproj.pyc'
p210
F1411758010.0
sS'c:\\marmalade\\7.4\\s3e\\makefile_builder\\templates\\vc6_opt.pyc'
p211
F1411758010.0
sS'c:\\marmalade\\7.4\\s3e\\makefile_builder\\plugins\\s3e_win8.pyc'
p212
F1411758010.0
sS'c:\\marmalade\\7.4\\s3e\\makefile_builder\\mkb_main.pyc'
p213
F1411758008.0
sS'c:\\marmalade\\7.4\\s3e\\makefile_builder\\templates\\wp8_csproj.pyc'
p214
F1411758010.0
sS'c:\\marmalade\\7.4\\s3e\\makefile_builder\\templates\\win32_vcproj.pyc'
p215
F1411758010.0
sS'c:\\marmalade\\7.4\\s3e\\makefile_builder\\templates\\win8_sln.pyc'
p216
F1411758010.0
sS'c:\\marmalade\\7.4\\s3e\\makefile_builder\\mkb_launcher.exe'
p217
F1411757118.0
sS'c:\\marmalade\\7.4\\s3e\\makefile_builder\\plugins\\osx_xcode.pyc'
p218
F1411758010.0
sS'c:\\marmalade\\7.4\\s3e\\makefile_builder\\plugins'
p219
F1411803920.271899
sS'c:\\marmalade\\7.4\\s3e\\makefile_builder\\templates\\wp8_csproj_user.pyc'
p220
F1411758010.0
sS'c:\\marmalade\\7.4\\s3e\\makefile_builder\\plugins\\win32_vc6.pyc'
p221
F1411758010.0
sS'c:\\marmalade\\7.4\\s3e\\makefile_builder\\plugins\\s3e_vc6.pyc'
p222
F1411758008.0
sS'c:\\marmalade\\7.4\\s3e\\makefile_builder\\templates\\vc10_user.pyc'
p223
F1411758010.0
sS'c:\\marmalade\\7.4\\s3e\\makefile_builder\\docs\\deprecated.defines.txt'
p224
F1411756764.0
sS'c:\\marmalade\\7.4\\s3e\\makefile_builder\\templates\\wp81_csproj_user.pyc'
p225
F1411758010.0
sS'c:\\marmalade\\7.4\\s3e\\makefile_builder\\templates\\ws81_ext_sln.pyc'
p226
F1411758010.0
sS'c:\\marmalade\\7.4\\s3e\\makefile_builder\\templates\\make.py'
p227
F1411756764.0
sS'c:\\marmalade\\7.4\\s3e\\makefile_builder\\plugins\\wp81_wp81.pyc'
p228
F1411758010.0
sS'c:\\marmalade\\7.4\\s3e\\makefile_builder\\plugins\\s3e_qmake.pyc'
p229
F1411803920.1701696
sS'c:\\marmalade\\7.4\\s3e\\makefile_builder\\templates\\mips_linker_script'
p230
F1411756764.0
sS'c:\\marmalade\\7.4\\s3e\\makefile_builder\\plugins\\deploy.pyc'
p231
F1411758008.0
sS'c:\\marmalade\\7.4\\s3e\\makefile_builder\\plugins\\ws81_ws81.pyc'
p232
F1411758010.0
sS'c:\\marmalade\\7.4\\s3e\\makefile_builder\\mkb.py'
p233
F1411756764.0
sS'c:\\marmalade\\7.4\\s3e\\makefile_builder\\docs\\options.txt'
p234
F1411756764.0
sS'c:\\marmalade\\7.4\\s3e\\makefile_builder\\mkb_parser.pyc'
p235
F1411758008.0
sS'c:\\marmalade\\7.4\\s3e\\makefile_builder\\templates\\qmake_user.py'
p236
F1411756764.0
sS'c:\\marmalade\\7.4\\s3e\\makefile_builder\\docs\\mkb.defines.txt'
p237
F1411756764.0
sS'c:\\marmalade\\7.4\\s3e\\makefile_builder\\deployment.pyc'
p238
F1411758008.0
sS'c:\\marmalade\\7.4\\s3e\\makefile_builder\\plugins\\wp8_wp8.pyc'
p239
F1411758010.0
sS'c:\\marmalade\\7.4\\s3e\\makefile_builder\\plugins\\linux_scons.pyc'
p240
F1411758010.0
sS'c:\\marmalade\\7.4\\s3e\\makefile_builder\\plugins\\s3e_web.pyc'
p241
F1411758008.0
sS'c:\\marmalade\\7.4\\s3e\\makefile_builder\\plugins\\S3EEmitter.pyc'
p242
F1411758008.0
sS'c:\\marmalade\\7.4\\s3e\\makefile_builder\\plugins\\Win8Emitter.pyc'
p243
F1411758010.0
sS'c:\\marmalade\\7.4\\s3e\\makefile_builder\\templates\\xcode4_arm.xcscheme'
p244
F1411756766.0
sS'c:\\marmalade\\7.4\\s3e\\makefile_builder\\plugins\\vc6_utils.pyc'
p245
F1411758010.0
sS'c:\\marmalade\\7.4\\s3e\\makefile_builder\\templates\\wp8_vcxproj.pyc'
p246
F1411758010.0
sS'c:\\marmalade\\7.4\\s3e\\makefile_builder\\templates\\xcode4.xcscheme'
p247
F1411756766.0
sS'c:\\marmalade\\7.4\\s3e\\makefile_builder\\plugins\\MakeEmitter.pyc'
p248
F1411758008.0
sS'c:\\marmalade\\7.4\\s3e\\makefile_builder\\plugins\\java.pyc'
p249
F1411758010.0
sS'c:\\marmalade\\7.4\\s3e\\makefile_builder\\plugins\\XcodeEmitter.pyc'
p250
F1411803919.9116752
sS'c:\\marmalade\\7.4\\s3e\\makefile_builder\\plugins\\XcodeEmitter.py'
p251
F1411756764.0
sS'c:\\marmalade\\7.4\\s3e\\makefile_builder\\mkb_globals.pyc'
p252
F1411758008.0
sS'c:\\marmalade\\7.4\\s3e\\makefile_builder\\tool_launcher.exe'
p253
F1411757118.0
sS'c:\\marmalade\\7.4\\s3e\\makefile_builder\\mkb_util.pyc'
p254
F1411758008.0
sS'c:\\marmalade\\7.4\\s3e\\makefile_builder\\plugins\\xcode4_schememanagement.pyc'
p255
F1411803919.9427035
sS'c:\\marmalade\\7.4\\s3e\\makefile_builder\\templates\\ws8_sln.pyc'
p256
F1411758010.0
sS'c:\\marmalade\\7.4\\s3e\\makefile_builder\\templates\\win32_sln.pyc'
p257
F1411758010.0
sS'c:\\marmalade\\7.4\\s3e\\makefile_builder\\templates\\wp81_ext_csproj.pyc'
p258
F1411758010.0
sS'c:\\marmalade\\7.4\\s3e\\makefile_builder\\plugins\\s3e_wp81.pyc'
p259
F1411758010.0
sS'c:\\marmalade\\7.4\\s3e\\makefile_builder\\plugins\\s3e_wp8.pyc'
p260
F1411758010.0
sS'c:\\marmalade\\7.4\\s3e\\makefile_builder\\templates\\qmake.py'
p261
F1411756764.0
sS'c:\\marmalade\\7.4\\s3e\\makefile_builder\\templates\\gdb_start.txt'
p262
F1411756764.0
sS'c:\\marmalade\\7.4\\s3e\\makefile_builder\\templates'
p263
F1411803678.9534326
sS'c:\\marmalade\\7.4\\s3e\\makefile_builder\\templates\\ws8_ext_csproj.pyc'
p264
F1411758010.0
sS'c:\\marmalade\\7.4\\s3e\\makefile_builder\\templates\\win8_csproj_user.pyc'
p265
F1411758010.0
sS'c:\\marmalade\\7.4\\s3e\\makefile_builder\\templates\\vc7_suo.pyc'
p266
F1411758010.0
sS'c:\\marmalade\\7.4\\s3e\\makefile_builder\\plugins\\VisualStudioEmitter.pyc'
p267
F1411758010.0
sS'c:\\marmalade\\7.4\\s3e\\makefile_builder\\templates\\linker_script'
p268
F1411756764.0
sS'c:\\marmalade\\7.4\\s3e\\makefile_builder\\docs\\deprecated.options.txt'
p269
F1411756764.0
sS'c:\\marmalade\\7.4\\s3e\\makefile_builder\\plugins\\s3e_xcode.pyc'
p270
F1411803920.2749066
sS'c:\\marmalade\\7.4\\s3e\\makefile_builder\\plugins\\s3e_ws8.pyc'
p271
F1411758010.0
sS'c:\\marmalade\\7.4\\s3e\\makefile_builder\\templates\\xcode4_DeployTool.xcscheme'
p272
F1411756766.0
sS'c:\\marmalade\\7.4\\s3e\\makefile_builder\\templates\\ws8_csproj_user.pyc'
p273
F1411758010.0
sS'c:\\marmalade\\7.4\\s3e\\makefile_builder\\plugins\\osx_scons.pyc'
p274
F1411758010.0
sS'c:\\marmalade\\7.4\\s3e\\makefile_builder\\templates\\ws81_csproj.pyc'
p275
F1411758010.0
sS'c:\\marmalade\\7.4\\s3e\\makefile_builder\\templates\\wp8_sln.pyc'
p276
F1411758010.0
sS'c:\\marmalade\\7.4\\s3e\\makefile_builder\\docs'
p277
F1411803679.0535107
sS'c:\\marmalade\\7.4\\s3e\\makefile_builder\\plugins\\ws8_ws8.pyc'
p278
F1411758010.0
sS'c:\\marmalade\\7.4\\s3e\\makefile_builder\\docs\\deployment_options.txt'
p279
F1411756764.0
sS'c:\\marmalade\\7.4\\s3e\\makefile_builder\\templates\\win32_vcxproj_filters.pyc'
p280
F1411758010.0
sS'c:\\marmalade\\7.4\\s3e\\makefile_builder\\templates\\win32_dsw.pyc'
p281
F1411758010.0
sS'c:\\marmalade\\7.4\\s3e\\makefile_builder\\plugins\\s3e_ws81.pyc'
p282
F1411758010.0
sS'c:\\marmalade\\7.4\\s3e\\makefile_builder\\plugins\\SConsEmitter.pyc'
p283
F1411758010.0
sS'c:\\marmalade\\7.4\\s3e\\makefile_builder\\templates\\wp81_vcxproj.pyc'
p284
F1411758010.0
sS'c:\\marmalade\\7.4\\s3e\\makefile_builder\\plugins\\win8_utils.pyc'
p285
F1411758010.0
sS'c:\\marmalade\\7.4\\s3e\\makefile_builder\\templates\\template.opt'
p286
F1411756764.0
sS'c:\\marmalade\\7.4\\s3e\\makefile_builder\\plugins\\vc7_utils.pyc'
p287
F1411758010.0
sS'c:\\marmalade\\7.4\\s3e\\makefile_builder\\templates\\win32_dsp.pyc'
p288
F1411758010.0
sS'c:\\marmalade\\7.4\\s3e\\makefile_builder\\plugins\\s3e_make.pyc'
p289
F1411758008.0
sS'c:\\marmalade\\7.4\\s3e\\makefile_builder\\templates\\rvct_linker_script'
p290
F1411756764.0
sS'c:\\marmalade\\7.4\\s3e\\makefile_builder\\templates\\win8_csproj.pyc'
p291
F1411758010.0
sS'c:\\marmalade\\7.4\\s3e\\makefile_builder\\templates\\xcode.py'
p292
F1411756766.0
sS'c:\\marmalade\\7.4\\s3e\\makefile_builder\\templates\\ws8_vcxproj.pyc'
p293
F1411758010.0
sS'c:\\marmalade\\7.4\\s3e\\makefile_builder\\templates\\wp81_csproj.pyc'
p294
F1411758010.0
sS'c:\\marmalade\\7.4\\s3e\\makefile_builder\\mkb_upstream.pyc'
p295
F1411758008.0
sS'c:\\marmalade\\7.4\\s3e\\makefile_builder\\templates\\win32_vcxproj.pyc'
p296
F1411758010.0
sS'c:\\marmalade\\7.4\\s3e\\makefile_builder\\templates\\ws8_csproj.pyc'
p297
F1411758010.0
sS'c:\\marmalade\\7.4\\s3e\\makefile_builder\\docs\\parse_options.pyc'
p298
F1411758012.0
sS'c:\\marmalade\\7.4\\s3e\\makefile_builder\\templates\\Info.plist'
p299
F1411756764.0
sS'c:\\marmalade\\7.4\\s3e\\makefile_builder\\templates\\wp81_sln.pyc'
p300
F1411758010.0
sS'c:\\marmalade\\7.4\\s3e\\makefile_builder\\templates\\ws81_csproj_user.pyc'
p301
F1411758010.0
sS'c:\\marmalade\\7.4\\s3e\\makefile_builder\\templates\\ws81_vcxproj.pyc'
p302
F1411758010.0
sccopy_reg
_reconstructor
p303
(cmkb_main
MkbFile
p304
c__builtin__
object
p305
Ntp306
Rp307
(dp308
g5
(lp309
sS'target_name'
p310
S'MVSStage1'
p311
sS'current_file'
p312
g120
sS'package_path'
p313
(lp314
sS'post_build'
p315
(lp316
(lp317
S'c:/marmalade/7.4/s3e/tools'
p318
aS'C:\\Marmalade\\7.4\\s3e\\python\\python.exe .\\process_map.py "$(TargetPath)"'
p319
aa(S'c:\\marmalade\\7.4\\s3e\\bin'
p320
S'"s3e_plink" -l "$(TargetPath)" '
p321
g152
tp322
asS'librarys'
p323
(lp324
g303
(cmkb_main
Library
p325
g305
Ntp326
Rp327
(dp328
S'name'
p329
S'vc6_compat.lib'
p330
sS'expand_name'
p331
I00
sS'include_spec_rvct_objs'
p332
(lp333
sS'include_all_objs'
p334
I00
sS'share_arm'
p335
I00
sS'arch'
p336
S'x86'
p337
sS'nodebug'
p338
I00
sg35
Nsbag303
(g325
g305
Ntp339
Rp340
(dp341
g329
S'iw2d'
p342
sg331
I01
sg332
(lp343
sg334
Nsg335
Nsg336
Nsg338
I00
sg35
Nsbag303
(g325
g305
Ntp344
Rp345
(dp346
g329
S'ATI_Compress_MT_VC7.lib'
p347
sg331
I00
sg332
g343
sg334
Nsg335
Nsg336
S'x86'
p348
sg338
I00
sg35
Nsbag303
(g325
g305
Ntp349
Rp350
(dp351
g329
S'iwgx'
p352
sg331
I01
sg332
g343
sg334
Nsg335
Nsg336
Nsg338
I00
sg35
Nsbag303
(g325
g305
Ntp353
Rp354
(dp355
g329
S'iwgl'
p356
sg331
I01
sg332
g343
sg334
Nsg335
Nsg336
Nsg338
I00
sg35
Nsbag303
(g325
g305
Ntp357
Rp358
(dp359
g329
S'iwutil'
p360
sg331
I01
sg332
g343
sg334
Nsg335
Nsg336
Nsg338
I00
sg35
Nsbag303
(g325
g305
Ntp361
Rp362
(dp363
g329
S'jpeg'
p364
sg331
I01
sg332
g343
sg334
Nsg335
Nsg336
Nsg338
I00
sg35
Nsbag303
(g325
g305
Ntp365
Rp366
(dp367
g329
S'z'
p368
sg331
I01
sg332
g343
sg334
Nsg335
Nsg336
Nsg338
I00
sg35
Nsbag303
(g325
g305
Ntp369
Rp370
(dp371
g329
S'png'
p372
sg331
I01
sg332
g343
sg334
Nsg335
Nsg336
Nsg338
I00
sg35
Nsbag303
(g325
g305
Ntp373
Rp374
(dp375
g329
S'iwgeom'
p376
sg331
I01
sg332
g343
sg334
Nsg335
Nsg336
Nsg338
I00
sg35
Nsbag303
(g325
g305
Ntp377
Rp378
(dp379
g329
S'iwresmanager'
p380
sg331
I01
sg332
g343
sg334
Nsg335
Nsg336
Nsg338
I00
sg35
Nsbag303
(g325
g305
Ntp381
Rp382
(dp383
g329
S'iwgxfont'
p384
sg331
I01
sg332
g343
sg334
Nsg335
Nsg336
Nsg338
I00
sg35
Nsbag303
(g325
g305
Ntp385
Rp386
(dp387
g329
S'tiniconv'
p388
sg331
I01
sg332
g343
sg334
Nsg335
Nsg336
Nsg338
I00
sg35
Nsbag303
(g325
g305
Ntp389
Rp390
(dp391
g329
S's3e_cpp'
p392
sg331
I01
sg332
g333
sg334
I00
sg335
I00
sg336
Nsg338
I00
sg35
Nsbag303
(g325
g305
Ntp393
Rp394
(dp395
g329
S's3e'
p396
sg331
I01
sg332
(lp397
S'iwcrt.o'
p398
asg334
I00
sg335
I00
sg336
Nsg338
I00
sg35
Nsbag303
(g325
g305
Ntp399
Rp400
(dp401
g329
g48
sg331
I01
sg332
g333
sg334
I00
sg335
I00
sg336
S'x86'
p402
sg338
I01
sg35
Nsbag303
(g325
g305
Ntp403
Rp404
(dp405
g329
g48
sg331
I01
sg332
g333
sg334
I00
sg335
I00
sg336
S'!x86'
p406
sg338
I01
sg35
Nsbag303
(g325
g305
Ntp407
Rp408
(dp409
g329
S'stdc++'
p410
sg331
I00
sg332
g333
sg334
I00
sg335
I00
sg336
S'mips'
p411
sg338
I00
sg35
Nsbag303
(g325
g305
Ntp412
Rp413
(dp414
g329
S'c'
p415
sg331
I00
sg332
g333
sg334
I00
sg335
I00
sg336
S'mips'
p416
sg338
I00
sg35
Nsbag303
(g325
g305
Ntp417
Rp418
(dp419
g329
S'm'
p420
sg331
I00
sg332
g333
sg334
I00
sg335
I00
sg336
S'mips'
p421
sg338
I00
sg35
Nsbag303
(g325
g305
Ntp422
Rp423
(dp424
g329
S'gcc'
p425
sg331
I00
sg332
g333
sg334
I00
sg335
I00
sg336
S'mips'
p426
sg338
I00
sg35
Nsbag303
(g325
g305
Ntp427
Rp428
(dp429
g329
S'stdc++'
p430
sg331
I00
sg332
g333
sg334
I00
sg335
I00
sg336
S'gcc_x86_android'
p431
sg338
I00
sg35
Nsbag303
(g325
g305
Ntp432
Rp433
(dp434
g329
g415
sg331
I00
sg332
g333
sg334
I00
sg335
I00
sg336
S'gcc_x86_android'
p435
sg338
I00
sg35
Nsbag303
(g325
g305
Ntp436
Rp437
(dp438
g329
g420
sg331
I00
sg332
g333
sg334
I00
sg335
I00
sg336
S'gcc_x86_android'
p439
sg338
I00
sg35
Nsbag303
(g325
g305
Ntp440
Rp441
(dp442
g329
g425
sg331
I00
sg332
g333
sg334
I00
sg335
I00
sg336
S'gcc_x86_android'
p443
sg338
I00
sg35
NsbasS'library_paths'
p444
(lp445
g303
(cmkb_main
LibraryPath
p446
g305
Ntp447
Rp448
(dp449
S'expand_path'
p450
I01
sg329
S'c:/marmalade/7.4/modules/iw2d'
p451
sbag303
(g446
g305
Ntp452
Rp453
(dp454
g450
I00
sg329
S'c:/marmalade/7.4/modules/iwgx/atitools'
p455
sbag303
(g446
g305
Ntp456
Rp457
(dp458
g450
I01
sg329
S'c:/marmalade/7.4/modules/iwgx'
p459
sbag303
(g446
g305
Ntp460
Rp461
(dp462
g450
I01
sg329
S'c:/marmalade/7.4/modules/iwgl'
p463
sbag303
(g446
g305
Ntp464
Rp465
(dp466
g450
I01
sg329
S'c:/marmalade/7.4/modules/iwutil'
p467
sbag303
(g446
g305
Ntp468
Rp469
(dp470
g450
I01
sg329
S'c:/marmalade/7.4/modules/third_party/libjpeg'
p471
sbag303
(g446
g305
Ntp472
Rp473
(dp474
g450
I01
sg329
S'c:/marmalade/7.4/modules/third_party/zlib'
p475
sbag303
(g446
g305
Ntp476
Rp477
(dp478
g450
I01
sg329
S'c:/marmalade/7.4/modules/third_party/libpng'
p479
sbag303
(g446
g305
Ntp480
Rp481
(dp482
g450
I01
sg329
S'c:/marmalade/7.4/modules/iwgeom'
p483
sbag303
(g446
g305
Ntp484
Rp485
(dp486
g450
I01
sg329
S'c:/marmalade/7.4/modules/iwresmanager'
p487
sbag303
(g446
g305
Ntp488
Rp489
(dp490
g450
I01
sg329
S'c:/marmalade/7.4/modules/iwgxfont'
p491
sbag303
(g446
g305
Ntp492
Rp493
(dp494
g450
I01
sg329
S'c:/marmalade/7.4/modules/third_party/tiniconv'
p495
sbag303
(g446
g305
Ntp496
Rp497
(dp498
g450
I01
sg329
S'c:/marmalade/7.4/s3e'
p499
sbasS'macros'
p500
(dp501
S'IW_USE_CALLSTACK'
p502
NsS'IW_SDK'
p503
NsS'I3D_PLATFORM_S3E'
p504
NsS'__S3E__'
p505
NsS'IW_MKF_LIBJPEG'
p506
NsS'I3D_OS_S3E'
p507
NsS'IW_MKF_PVRTEXTOOL'
p508
NsS'IW_MKF_TINICONV'
p509
NsS'IW_APP_VERSION'
p510
S'"1.0"'
p511
sS'IW_MKF_IWRESMANAGER'
p512
NsS'IW_MKF_IWUTIL'
p513
NsS'IW_PLATFORM_S3E'
p514
NsS'IW_ASSERTION_CHANNEL_2D'
p515
S'1'
p516
sS'IW_APP_NAME'
p517
S'"MVSStage1"'
p518
sS'IW_MKF_IWGXFONT'
p519
NsS'IW_MKF_ZLIB'
p520
NsS'IW_MKF_IWGX'
p521
NsS'IW_USE_ASSERTIONS'
p522
NsS'_CRT_SECURE_NO_DEPRECATE'
p523
NsS'IW_MKF_IWGL'
p524
NsS'IW_MKF_LIBPNG'
p525
NsS'IW_DEBUG'
p526
NsS'IW_USE_TRACING'
p527
NsS'IW_TRACE_CHANNEL_PVRTEXTOOL'
p528
g516
sS'S3E_INCLUDE_LEGACY'
p529
NsS'IW_TRACE_CHANNEL_PVRTEXTOOL_VERBOSE'
p530
S'2'
p531
sS'IW_MKF_IW2D'
p532
NsS'IW_MKF_IWGEOM'
p533
NsS'IW_ASSERTION_CHANNEL_PVRTEXTOOL'
p534
g516
ssS'done_warnings'
p535
(dp536
sS'subprojects'
p537
(dp538
g177
S'zlib'
p539
sg175
S'libjpeg'
p540
sg182
S'tiniconv'
p541
sg172
S'iwgx'
p542
sg178
S'iwgeom'
p543
sg174
S'iwutil'
p544
sg171
S'iw2d'
p545
sg181
S'iwgxfont'
p546
sg179
S'iwresmanager'
p547
sg176
S'libpng'
p548
sg173
S'iwgl'
p549
sg180
S'PVRTexTool'
p550
ssS'deployments'
p551
(dp552
S'Default'
p553
g303
(cdeployment
Deployment
p554
g305
Ntp555
Rp556
(dp557
S'got_version'
p558
I0
sS'assets'
p559
g553
sS'mkb'
p560
g307
sS'target'
p561
Nsg336
(lp562
sS'options'
p563
(dp564
S'iphone-link-lib'
p565
(lp566
sS'game-icf'
p567
NsS'android-tm'
p568
NsS'winmobile-icon32'
p569
NsS'ws8-logo-image150x150'
p570
NsS'wp81-logo-image150x150'
p571
NsS'ws81-product-version'
p572
NsS'osx-ext-dll'
p573
(lp574
S'c:/marmalade/7.4/extensions/pvrtextool/lib/osx/libPVRTexTool.dylib'
p575
asS'iphone-provisioning-profile'
p576
NsS'ws8-splash-screen-image620x300'
p577
NsS'wp81-extra-pri'
p578
(lp579
sS'ws8-ext-capabilities'
p580
(lp581
sS'android-icon-hdpi'
p582
NsS'brew-icon-large'
p583
NsS'iphone-splash-full-orient'
p584
NsS'wp8-tile-fliptemplate-supports-large'
p585
NsS'iphone-show-status-bar'
p586
NsS'roku-requires-mkv'
p587
NsS'long-caption'
p588
NsS'android-pkgname'
p589
NsS'wp81-publisher-display-name'
p590
NsS'blackberry-permissions-read-device-identifying-information'
p591
NsS'ws81-certificate-end-date'
p592
NsS'psp-dlgcontentid'
p593
NsS'iphone-minimum-ios-version'
p594
NsS'target-folder'
p595
NsS'tizen-dist1-CA-path'
p596
NsS'symbian-icon2-format'
p597
NsS'tizen-author-key'
p598
NsS'firefoxos-icon-128X128'
p599
NsS'iphone-region'
p600
NsS'uiq3-icon3-mask'
p601
NsS'brew-encoding'
p602
NsS'android-x86'
p603
NsS'nds-initialcode'
p604
NsS'iphone-persistent-wifi'
p605
NsS'psp-snd0'
p606
NsS'roku-icon-focus-hd'
p607
NsS'winmobile-install-folder'
p608
NsS'android-external-res'
p609
(lp610
sS'ws8-product-version'
p611
NsS'brew-priviledges'
p612
NsS'iphone-icon-ipad-search'
p613
NsS'iphone-icon-ipad'
p614
NsS'roku-hidden'
p615
NsS'psp-titlename'
p616
NsS'wp81-product-version'
p617
NsS'symbian-icon1-mask'
p618
NsS'psp-parentallevel'
p619
NsS'splashscreen-use-all'
p620
NsS'wp8-author'
p621
NsS'symbian-disable-ecompxl'
p622
NsS'splashscreen-auto-onblack'
p623
NsS'win32-ext-dll'
p624
(lp625
S'c:/marmalade/7.4/extensions/pvrtextool/lib/win32/PVRTexTool.dll'
p626
asS'iphone-development-key'
p627
NsS'winmobile-icon48'
p628
NsS'android-unsigned'
p629
NsS'osx-appstore-category'
p630
NsS'version-revision'
p631
NsS'roku-icon-focus-sd'
p632
NsS'android-keystore'
p633
NsS'winmobile-png90'
p634
NsS'iphone-icon-ipad-high-res'
p635
NsS'iphone-disable-ipad'
p636
NsS'wp8-product-id'
p637
NsS'ws81-splash-screen-background'
p638
NsS'wp8-ext-capabilities'
p639
(lp640
sS'iphone-ipad-only'
p641
NsS'symbian-icon1-mask-black'
p642
NsS'iphone-nosign'
p643
NsS'iphone-bundle-localisations'
p644
NsS'winmobile-png60'
p645
NsS'blackberry-permissions-access-shared'
p646
NsS'blackberry-author'
p647
NsS'android-icon-xxxhdpi'
p648
NsS'olddeploytoolstyle'
p649
NsS'android_icon_gallery'
p650
NsS'wp81-splash-screen-background'
p651
NsS'winmobile-cab-compress'
p652
NsS'iphone-info-plist'
p653
NsS'ws81-ext-managed-dll'
p654
(lp655
sS'playbook-cskpass'
p656
NsS'ws8-distribution-pfx-password'
p657
NsS'symbian-key'
p658
NsS'app-icf'
p659
NsS'blackberry-storepass'
p660
NsS'wp8-tile-fliptemplate-back-title'
p661
NsS'brew-compress-loader'
p662
NsS'win32-pref-windowposy'
p663
NsS'win32-pref-windowposx'
p664
NsS'roku-requires-audiometadata'
p665
NsS'wp8-exclude-low-mem'
p666
NsS'iphone-icon-ipad-search-high-res'
p667
NsS'iphone-link-libdir'
p668
(lp669
sS'wp81-ext-capabilities'
p670
(lp671
sS'blackberry-permissions-read-geolocation'
p672
NsS'ws81-ext-device-capabilities'
p673
(lp674
sS'tizen-signed'
p675
NsS'android-extra-application-manifest'
p676
(lp677
sS'ws8-ext-native-dll'
p678
(lp679
sS'symbian-icon2-mask'
p680
NsS'iphone-backgroundmode-audio'
p681
NsS'webos-memory'
p682
NsS'android-keypass'
p683
NsS'name'
p684
NsS'uiq3-icon2-format'
p685
NsS'roku-splash-screen-sd'
p686
NsS'auto-derbh'
p687
NsS'roku-icon-side-sd'
p688
NsS'android-external-assets'
p689
(lp690
sS'nds-publicsavedatasize'
p691
NsS'splashscreen'
p692
NsS'brew-mif'
p693
NsS'iphone-icon-settings-high-res'
p694
NsS'android-manifest'
p695
NsS'ws81-splash-screen-image620x300'
p696
NsS'wp81-product-name'
p697
NsS's3e-compression'
p698
NsS'tizen-author-password'
p699
NsS'wp8-tile-fliptemplate-back-content'
p700
NsS'blackberry-extra-descriptor'
p701
(lp702
sS'symbian-icon1'
p703
NsS'symbian-icon2'
p704
NsS'android-extra-styles-file'
p705
NsS'wp81-publisher-id'
p706
NsS'nds-bannertitle-jp'
p707
NsS'wp81-logo-image44x44'
p708
NsS'osx-sign-for-store'
p709
NsS'symbian7-uid'
p710
NsS'wp8-tile-fliptemplate-large-back-content'
p711
NsS'wp81-phone-publisher-id'
p712
NsS'nds-bannertitle-cn'
p713
NsS'iphone-distribution-key'
p714
NsS'android-icon-gallery'
p715
NsS'blackberry-keystore'
p716
NsS'ws8-extra-res'
p717
(lp718
sS'caption'
p719
NsS'android-extra-manifest'
p720
(lp721
sS'wp81-ext-sdk-ref'
p722
(lp723
sS'android-icon-xxhdpi'
p724
NsS'version-minor'
p725
NsS'iphone-link-libdirs'
p726
(lp727
sS'iphone-icon-large'
p728
NsS'symbian-keypwd'
p729
NsS'symbian8-uid'
p730
NsS'symbian-cert-key'
p731
NsS'winmobile-ampd-part-number'
p732
NsS'arch'
p733
NsS'nds-romheadertemplate'
p734
NsS'webos-icon'
p735
NsS'wp81-ext-device-capabilities'
p736
(lp737
sS'psp-dlgprotectdocument'
p738
NsS'ws8-splash-screen-background'
p739
NsS'android-icon-mdpi'
p740
NsS'nds-icon'
p741
NsS'ws8-custom-manifest-fill'
p742
NsS'iphone-development-cert'
p743
NsS'blackberry-phone-icon'
p744
NsS'iphone-enable-4inch-retina'
p745
NsS'ws8-custom-manifest'
p746
NsS'version-major'
p747
NsS'wp8-genre-isgame'
p748
NsS'uiq3-uid'
p749
NsS'iphone-splash-retina-generate'
p750
NsS'tizen-hw-acceleration'
p751
NsS'iphone_bundle_localisations'
p752
NsS'tizen-dist1-key'
p753
NsS'wp81-custom-manifest-fill'
p754
NsS'wp8-custom-manifest'
p755
NsS'nds-bannertitle-ge'
p756
NsS'iphone-sign-for-distribution'
p757
NsS'wp8-tile-fliptemplate-medium-back-image'
p758
NsS'wp8-publisher-id'
p759
NsS'icon'
p760
NsS'wp8-exclude-wxga'
p761
NsS'wp81-identity-name'
p762
NsS'uiq3-icon2-mask'
p763
NsS'iphone-splashscreen-portrait'
p764
NsS'iphone-icon-high-res'
p765
NsS'ws81-distribution-pfx-password'
p766
NsS'playbook-author'
p767
NsS'android-icon-xhdpi'
p768
NsS'linux-ext-lib'
p769
(lp770
sS'blackberry-permissions-access-internet'
p771
NsS'wp8-exclude-720p'
p772
NsS'lgtv-use-drm'
p773
NsS'symbian-platsecflags'
p774
NsS'ws8-description'
p775
NsS'blackberry-playbook-icon'
p776
NsS'copyright'
p777
NsS'win32-gles-directory'
p778
NsS'version'
p779
NsS'ws81-logo-image150x150'
p780
NsS'osx-signing-identity-app'
p781
NsS'tizen-project-url'
p782
NsS'symbian-icon-svg'
p783
NsS'android-aliasname'
p784
NsS'psp-dlgmanual'
p785
NsS'brew-uid'
p786
NsS'symbian-locationsupport'
p787
NsS'wp81-logo-image50x50'
p788
NsS'ws8-ext-managed-dll'
p789
(lp790
sS'nds-bannertitle-it'
p791
NsS'ws81-custom-manifest-fill'
p792
NsS'ws8-ext-sdk-manifest-part'
p793
(lp794
sS'uiq3-icon1-mask'
p795
NsS'winmobile-icon16'
p796
NsS'ws8-product-name'
p797
NsS'blackberry-cskpass'
p798
NsS'winmobile-start-menu-folder'
p799
NsS'brew-clsid'
p800
NsS'roku-requires-bluetooth'
p801
NsS'ws8-ext-device-capabilities'
p802
(lp803
sS'blackberry-permissions-use-camera'
p804
NsS'ws81-extra-pri'
p805
(lp806
sS'iphone-prerendered-icon'
p807
NsS'iphone-appid'
p808
NsS'ws8-identity-name'
p809
NsS'tizen-dist2-CA-path'
p810
NsS'android-external-jars'
p811
(lp812
sS'winmobile-icon64'
p813
NsS'blackberry-permissions-post-notification'
p814
NsS'winmobile-setup-dll'
p815
NsS'firefoxos-manifest'
p816
NsS'win8-winrt-extra-res'
p817
(lp818
sS'wp81-ext-sdk-manifest-part'
p819
(lp820
sS'symbian9-uid'
p821
NsS'iphone-icon-ipad-ios7'
p822
NsS'winmobile-trace-file'
p823
NsS'roku-splash-color'
p824
NsS'psp-appversion'
p825
NsS'ws8-publisher-id'
p826
NsS'android-supports-gl-texture'
p827
(lp828
sS'winmobile-png45'
p829
NsS'wp81-extra-res'
p830
(lp831
sS'android-storepass'
p832
NsS'osx-signing-identity-inst'
p833
NsS'android-custom-activity'
p834
NsS'psp-discversion'
p835
NsS'wp81-ext-managed-dll'
p836
(lp837
sS'psp-copyright'
p838
NsS'embed-icf'
p839
NsS'tizen-manifest'
p840
NsS'osx-icon'
p841
NsS'webos-appinfo'
p842
NsS'psp-dlghealthwarning'
p843
NsS'webos-appid'
p844
NsS'roku-icon-side-hd'
p845
NsS'iphone-icon-ipad-search-high-res-ios7'
p846
NsS'ws81-ext-sdk-manifest-part'
p847
(lp848
sS'loader_name_prefix'
p849
NsS'nds-titlename'
p850
NsS'ws81-logo-image50x50'
p851
NsS'wp81-custom-manifest'
p852
NsS'osx-entitlements-plist'
p853
NsS'psp-dlgicon0'
p854
NsS'winmobile-nouninstall'
p855
NsS'psp-discid'
p856
NsS'tizen-dist2-password'
p857
NsS'ws8-ext-sdk-ref'
p858
(lp859
sS'iphone-extra-string'
p860
(lp861
sS'version-string'
p862
NsS'iphone-icon-high-res-ios7'
p863
NsS'blackberry-permissions-record-audio'
p864
NsS'ws8-certificate-end-date'
p865
NsS'tizen-so'
p866
(lp867
sS'wp8-tile-fliptemplate-small-image'
p868
NsS'playbook-authorid'
p869
NsS'iphone-signing-identity'
p870
NsS'roku-persist-quota'
p871
NsS'nds-bannertitle-fr'
p872
NsS'ws8-distribution-pfx'
p873
NsS'ws8-publisher-display-name'
p874
NsS'brew-icon-small'
p875
NsS'psp-dlgpic2'
p876
NsS'psp-dlgpic0'
p877
NsS'psp-pic0'
p878
NsS'psp-pic1'
p879
NsS'win32-pref-windowtitle'
p880
NsS'psp-icon0'
p881
NsS'psp-icon1'
p882
NsS'ws81-identity-name'
p883
NsS'winmobile-icon'
p884
NsS'iphone-no-splash'
p885
NsS'iphone-splash'
p886
NsS'iphone-app-fonts'
p887
NsS'wp8-ext-native-dll'
p888
(lp889
sS'wp81-splash-screen-image480x800'
p890
NsS'ws81-distribution-cer'
p891
NsS'uiq3-icon2'
p892
NsS'uiq3-icon3'
p893
NsS'uiq3-icon1'
p894
NsS'uiq3-icon1-format'
p895
NsS'ws8-logo-image50x50'
p896
NsS'symbian-icon2-mask-black'
p897
NsS'symbian-run-on-install'
p898
NsS'wp81-description'
p899
NsS'ws81-publisher-display-name'
p900
NsS'firefoxos-xulrunner'
p901
NsS'symbian-soundrecordsupport'
p902
NsS'nds-bannertitle-sp'
p903
NsS'psp-producer'
p904
NsS'iphone-apple-wwdr-cert'
p905
NsS'android-icon-nonstandard'
p906
NsS'win32-pref-processtitle'
p907
NsS'nds-bannertitle-hn'
p908
NsS'tizen-dist2-key'
p909
NsS'brew-depends'
p910
NsS'ws81-custom-manifest'
p911
NsS'iphone-icon-ipad-search-ios7'
p912
NsS'brew-icon-medium'
p913
NsS'iphone-bundle-url-name'
p914
NsS'wp8-tile-fliptemplate-large-front-image'
p915
NsS'tizen-dist2-CA-root-path'
p916
NsS'ws81-description'
p917
NsS'uiq3-icon3-format'
p918
NsS'ws81-logo-image30x30'
p919
NsS'win8-phone-extra-res'
p920
(lp921
sS'iphone-signing-host'
p922
NsS'tizen-icon'
p923
NsS'osx-info-plist'
p924
NsS'symbian-icon1-format'
p925
NsS'win8-store-extra-res'
p926
(lp927
sS'blackberry-authorid'
p928
NsS'ws81-publisher-id'
p929
NsS'ws81-distribution-pfx'
p930
NsS'wp8-description'
p931
NsS'iphone-link-opts'
p932
(lp933
sS'ws81-ext-sdk-ref'
p934
(lp935
sS'roku-splash-min-time'
p936
NsS'wp8-tile-fliptemplate-medium-front-image'
p937
NsS'provider'
p938
NsS'playbook-keystore'
p939
NsS'tizen-appid'
p940
NsS'wp8-extra-res'
p941
(lp942
sS'symbian-osexecsupport'
p943
NsS'android-install-location'
p944
NsS'nds-privatesavedatasize'
p945
NsS'playbook-storepass'
p946
NsS'android-icon-ldpi'
p947
NsS'manufacturer'
p948
NsS'itunes-artwork'
p949
NsS'iphone-extra-sections'
p950
NsS'ws81-product-name'
p951
NsS'ws81-ext-native-dll'
p952
(lp953
sS'ws8-extra-pri'
p954
(lp955
sS'win32-icon'
p956
NsS'ws8-logo-image30x30'
p957
NsS'wp8-ext-managed-dll'
p958
(lp959
sS'iphone-splashscreen-landscape'
p960
NsS'symbian-maxheapsize'
p961
NsS'nds-makercode'
p962
NsS'priv-sign-key'
p963
NsS'networking'
p964
NsS'android-icon'
p965
NsS'iphone-icon-settings'
p966
NsS'wp81-phone-product-id'
p967
NsS'firefoxos-icon-60X60'
p968
NsS'iphone-distribution-cert'
p969
NsS'android_extra_strings'
p970
NsS'nds-bannertitle-en'
p971
NsS'wp8-tile-fliptemplate-title'
p972
NsS'android-so'
p973
(lp974
sS'wp8-higher-mem'
p975
NsS'wp8-ext-sdk-ref'
p976
(lp977
sS'roku-splash-screen-hd'
p978
NsS'iphone-bundle-url-schemes'
p979
NsS'roku-screensaver-private'
p980
NsS'osx-extra-res'
p981
(lp982
sS'ws81-extra-res'
p983
(lp984
sS'playbook-icon'
p985
NsS'uid'
p986
NsS'pkguid-as-uid'
p987
NsS'wp81-ext-native-dll'
p988
(lp989
sS'tizen-dist1-password'
p990
NsS'roku-screensaver-title'
p991
NsS'osx-minimum-osx-version'
p992
NsS'symbian-cert'
p993
NsS'iphone-icon'
p994
NsS'ws81-ext-capabilities'
p995
(lp996
sS'ws8-distribution-cer'
p997
NsS'playbook-access-shared'
p998
NsS'iphone-icon-ipad-high-res-ios7'
p999
NsS'iphone-link-libs'
p1000
(lp1001
sS'wp8-exclude-wvga'
p1002
NsS'assets'
p1003
NsS'wp8-tile-fliptemplate-large-back-image'
p1004
NsS'wp8-custom-manifest-fill'
p1005
NsS'pub-sign-key'
p1006
NsS'android-extra-strings'
p1007
NsS'tizen-author-CA-path'
p1008
Nssg329
g553
sbssS'platform'
p1009
S'S3E'
p1010
sg63
S'1.0'
p1011
sS'arcade_platform'
p1012
g4
sS'extensions'
p1013
(dp1014
sS'source_groups_tree'
p1015
(dp1016
S'(libpng)'
p1017
(dp1018
S'h'
p1019
(dp1020
S'c:/marmalade/7.4/modules/third_party/libpng/h/png.h'
p1021
(lp1022
I1
a(dp1023
asS'c:/marmalade/7.4/modules/third_party/libpng/h/pngconf.h'
p1024
(lp1025
I1
ag1023
assS'c:/marmalade/7.4/modules/third_party/libpng/libpng.mkf'
p1026
(lp1027
I1
a(dp1028
assS'(libjpeg)'
p1029
(dp1030
g1019
(dp1031
S'c:/marmalade/7.4/modules/third_party/libjpeg/h/jerror.h'
p1032
(lp1033
I1
a(dp1034
asS'c:/marmalade/7.4/modules/third_party/libjpeg/h/jmemsys.h'
p1035
(lp1036
I1
ag1034
asS'c:/marmalade/7.4/modules/third_party/libjpeg/h/jchuff.h'
p1037
(lp1038
I1
ag1034
asS'c:/marmalade/7.4/modules/third_party/libjpeg/h/jpeglib.h'
p1039
(lp1040
I1
ag1034
asS'c:/marmalade/7.4/modules/third_party/libjpeg/h/cdjpeg.h'
p1041
(lp1042
I1
ag1034
asS'c:/marmalade/7.4/modules/third_party/libjpeg/h/jinclude.h'
p1043
(lp1044
I1
ag1034
asS'c:/marmalade/7.4/modules/third_party/libjpeg/h/jconfig.h'
p1045
(lp1046
I1
ag1034
asS'c:/marmalade/7.4/modules/third_party/libjpeg/h/cderror.h'
p1047
(lp1048
I1
ag1034
asS'c:/marmalade/7.4/modules/third_party/libjpeg/h/jdct.h'
p1049
(lp1050
I1
ag1034
asS'c:/marmalade/7.4/modules/third_party/libjpeg/h/jversion.h'
p1051
(lp1052
I1
ag1034
asS'c:/marmalade/7.4/modules/third_party/libjpeg/h/transupp.h'
p1053
(lp1054
I1
ag1034
asS'c:/marmalade/7.4/modules/third_party/libjpeg/h/jdhuff.h'
p1055
(lp1056
I1
ag1034
asS'c:/marmalade/7.4/modules/third_party/libjpeg/h/jpegint.h'
p1057
(lp1058
I1
ag1034
asS'c:/marmalade/7.4/modules/third_party/libjpeg/h/jmorecfg.h'
p1059
(lp1060
I1
ag1034
assS'c:/marmalade/7.4/modules/third_party/libjpeg/libjpeg.mkf'
p1061
(lp1062
I1
a(dp1063
assS'(tiniconv)'
p1064
(dp1065
S'c:/marmalade/7.4/modules/third_party/tiniconv/source/tiniconv_int.h'
p1066
(lp1067
I1
a(dp1068
asS'c:/marmalade/7.4/modules/third_party/tiniconv/tiniconv.mkf'
p1069
(lp1070
I1
a(dp1071
asS'c:/marmalade/7.4/modules/third_party/tiniconv/source/tiniconv.h'
p1072
(lp1073
I1
ag1068
assS'Extensions'
p1074
(dp1075
S'PVRTexTool'
p1076
(dp1077
S'interface'
p1078
(dp1079
S'c:/marmalade/7.4/extensions/pvrtextool/interface/PVRTexTool_interface.cpp'
p1080
(lp1081
I1
a(dp1082
asS'c:/marmalade/7.4/extensions/pvrtextool/interface/PVRTexTool.defines.txt'
p1083
(lp1084
I1
ag1082
assS'c:/marmalade/7.4/extensions/pvrtextool/pvrtextool.mkf'
p1085
(lp1086
I1
a(dp1087
asS'c:/marmalade/7.4/extensions/pvrtextool/h/PVRTexTool.h'
p1088
(lp1089
I1
ag1082
asssS"'Marmalade Studio'"
p1090
(dp1091
S'iwgl'
p1092
(dp1093
S'c:/marmalade/7.4/modules/iwgl/iwgl.mkf'
p1094
(lp1095
I1
a(dp1096
asS'c:/marmalade/7.4/modules/iwgl/docs/iwgl.config.txt'
p1097
(lp1098
I1
a(dp1099
asS'c:/marmalade/7.4/modules/iwgl/h/IwGL.h'
p1100
(lp1101
I1
ag1099
asS'c:/marmalade/7.4/modules/iwgl/h/IwGLExt.h'
p1102
(lp1103
I1
ag1099
assS'iw2d'
p1104
(dp1105
S'c:/marmalade/7.4/modules/iw2d/docs/iw2d.config.txt'
p1106
(lp1107
I1
a(dp1108
asS'c:/marmalade/7.4/modules/iw2d/docs/iw2d_public.defines.txt'
p1109
(lp1110
I1
ag1108
asS'c:/marmalade/7.4/modules/iw2d/h/Iw2D.h'
p1111
(lp1112
I1
ag1108
asS'c:/marmalade/7.4/modules/iw2d/iw2d.mkf'
p1113
(lp1114
I1
a(dp1115
assS'iwgxfont'
p1116
(dp1117
S'c:/marmalade/7.4/modules/iwgxfont/docs/iwgxfont_public.defines.txt'
p1118
(lp1119
I1
a(dp1120
asS'c:/marmalade/7.4/modules/iwgxfont/h/IwGxFontGlyph.h'
p1121
(lp1122
I1
ag1120
asS'c:/marmalade/7.4/modules/iwgxfont/docs/iwgxfont.config.txt'
p1123
(lp1124
I1
ag1120
asS'c:/marmalade/7.4/modules/iwgxfont/h/IwGxFont.h'
p1125
(lp1126
I1
ag1120
asS'c:/marmalade/7.4/modules/iwgxfont/h/IwGxFontTypes.h'
p1127
(lp1128
I1
ag1120
asS'c:/marmalade/7.4/modules/iwgxfont/h/IwGxFontPreparedData.h'
p1129
(lp1130
I1
ag1120
asS'c:/marmalade/7.4/modules/iwgxfont/h/IwGxFontState.h'
p1131
(lp1132
I1
ag1120
asS'c:/marmalade/7.4/modules/iwgxfont/h/IwGxFontContainer.h'
p1133
(lp1134
I1
ag1120
asS'c:/marmalade/7.4/modules/iwgxfont/iwgxfont.mkf'
p1135
(lp1136
I1
a(dp1137
assS'iwgeom'
p1138
(dp1139
S'c:/marmalade/7.4/modules/iwgeom/docs/iwgeom.config.txt'
p1140
(lp1141
I1
a(dp1142
asS'c:/marmalade/7.4/modules/iwgeom/h/IwGeomFIntersect.h'
p1143
(lp1144
I1
ag1142
asS'c:/marmalade/7.4/modules/iwgeom/h/IwGeomMat2D.h.tpl'
p1145
(lp1146
I1
ag1142
asS'c:/marmalade/7.4/modules/iwgeom/iwgeom.mkf'
p1147
(lp1148
I1
a(dp1149
asS'c:/marmalade/7.4/modules/iwgeom/h/IwGeomVec.h.tpl'
p1150
(lp1151
I1
ag1142
asS'c:/marmalade/7.4/modules/iwgeom/h/IwGeomFSphere.h'
p1152
(lp1153
I1
ag1142
asS'c:/marmalade/7.4/modules/iwgeom/h/IwGeomFQuat.h'
p1154
(lp1155
I1
ag1142
asS'c:/marmalade/7.4/modules/iwgeom/h/IwGeomMenu.h'
p1156
(lp1157
I1
ag1142
asS'c:/marmalade/7.4/modules/iwgeom/h/IwGeomFMat2D.h'
p1158
(lp1159
I1
ag1142
asS'c:/marmalade/7.4/modules/iwgeom/h/IwGeomFVec4.h'
p1160
(lp1161
I1
ag1142
asS'c:/marmalade/7.4/modules/iwgeom/h/IwGeomQuat.h'
p1162
(lp1163
I1
ag1142
asS'c:/marmalade/7.4/modules/iwgeom/h/IwGeomFBBox.h'
p1164
(lp1165
I1
ag1142
asS'c:/marmalade/7.4/modules/iwgeom/h/IwGeomSVec4.h'
p1166
(lp1167
I1
ag1142
asS'c:/marmalade/7.4/modules/iwgeom/h/IwGeomFVec2.h'
p1168
(lp1169
I1
ag1142
asS'c:/marmalade/7.4/modules/iwgeom/h/IwGeomVec.h'
p1170
(lp1171
I1
ag1142
asS'c:/marmalade/7.4/modules/iwgeom/h/IwGeomPlane.h'
p1172
(lp1173
I1
ag1142
asS'c:/marmalade/7.4/modules/iwgeom/h/IwGeomQuat.h.tpl'
p1174
(lp1175
I1
ag1142
asS'c:/marmalade/7.4/modules/iwgeom/h/IwGeomSVec3.h'
p1176
(lp1177
I1
ag1142
asS'c:/marmalade/7.4/modules/iwgeom/h/IwGeomMat.h'
p1178
(lp1179
I1
ag1142
asS'c:/marmalade/7.4/modules/iwgeom/h/IwGeomVec3.h'
p1180
(lp1181
I1
ag1142
asS'c:/marmalade/7.4/modules/iwgeom/h/IwGeomVec2.h'
p1182
(lp1183
I1
ag1142
asS'c:/marmalade/7.4/modules/iwgeom/h/IwGeomLegacy.h'
p1184
(lp1185
I1
ag1142
asS'c:/marmalade/7.4/modules/iwgeom/h/IwGeomSQuat.h'
p1186
(lp1187
I1
ag1142
asS'c:/marmalade/7.4/modules/iwgeom/h/IwGeomCore.h'
p1188
(lp1189
I1
ag1142
asS'c:/marmalade/7.4/modules/iwgeom/h/IwGeomVec4.h'
p1190
(lp1191
I1
ag1142
asS'c:/marmalade/7.4/modules/iwgeom/h/IwGeomBBox.h'
p1192
(lp1193
I1
ag1142
asS'c:/marmalade/7.4/modules/iwgeom/h/IwGeomIntersect.h'
p1194
(lp1195
I1
ag1142
asS'c:/marmalade/7.4/modules/iwgeom/h/IwGeomSVec2.h'
p1196
(lp1197
I1
ag1142
asS'c:/marmalade/7.4/modules/iwgeom/h/IwGeomMat2D.h'
p1198
(lp1199
I1
ag1142
asS'c:/marmalade/7.4/modules/iwgeom/h/IwGeomSphere.h'
p1200
(lp1201
I1
ag1142
asS'c:/marmalade/7.4/modules/iwgeom/h/IwGeomFVec3.h'
p1202
(lp1203
I1
ag1142
asS'c:/marmalade/7.4/modules/iwgeom/h/IwGeom.h'
p1204
(lp1205
I1
ag1142
asS'c:/marmalade/7.4/modules/iwgeom/h/IwGeomMat.h.tpl'
p1206
(lp1207
I1
ag1142
asS'c:/marmalade/7.4/modules/iwgeom/h/IwGeomFPlane.h'
p1208
(lp1209
I1
ag1142
asS'c:/marmalade/7.4/modules/iwgeom/h/IwGeomFMat.h'
p1210
(lp1211
I1
ag1142
asS'c:/marmalade/7.4/modules/iwgeom/h/IwGeomSqrt.h'
p1212
(lp1213
I1
ag1142
assS'iwresmanager'
p1214
(dp1215
S'c:/marmalade/7.4/modules/iwresmanager/h/IwResHandlerITX.h'
p1216
(lp1217
I1
a(dp1218
asS'c:/marmalade/7.4/modules/iwresmanager/h/IwResGroup.h'
p1219
(lp1220
I1
ag1218
asS'c:/marmalade/7.4/modules/iwresmanager/h/IwResManager.h'
p1221
(lp1222
I1
ag1218
asS'c:/marmalade/7.4/modules/iwresmanager/h/IwResManagerClass.h'
p1223
(lp1224
I1
ag1218
asS'c:/marmalade/7.4/modules/iwresmanager/h/IwResSerialise.h'
p1225
(lp1226
I1
ag1218
asS'c:/marmalade/7.4/modules/iwresmanager/h/IwResHandlerGROUP.h'
p1227
(lp1228
I1
ag1218
asS'c:/marmalade/7.4/modules/iwresmanager/iwresmanager.mkf'
p1229
(lp1230
I1
a(dp1231
asS'c:/marmalade/7.4/modules/iwresmanager/h/IwResHandlerImage.h'
p1232
(lp1233
I1
ag1218
asS'c:/marmalade/7.4/modules/iwresmanager/h/IwResHandler.h'
p1234
(lp1235
I1
ag1218
asS'c:/marmalade/7.4/modules/iwresmanager/docs/iwresmanager.config.txt'
p1236
(lp1237
I1
ag1218
assS'iwgx'
p1238
(dp1239
S'c:/marmalade/7.4/modules/iwgx/h/IwDebugPrim.h'
p1240
(lp1241
I1
a(dp1242
asS'c:/marmalade/7.4/modules/iwgx/h/IwGxFuncTable.h'
p1243
(lp1244
I1
ag1242
asS'c:/marmalade/7.4/modules/iwgx/h/IwClip.inl'
p1245
(lp1246
I1
ag1242
asS'c:/marmalade/7.4/modules/iwgx/h/IwGxPrint.h'
p1247
(lp1248
I1
ag1242
asS'c:/marmalade/7.4/modules/iwgx/h/IwGx.h'
p1249
(lp1250
I1
ag1242
asS'c:/marmalade/7.4/modules/iwgx/h/IwTexture.h'
p1251
(lp1252
I1
ag1242
asS'c:/marmalade/7.4/modules/iwgx/h/IwFColour.h'
p1253
(lp1254
I1
ag1242
asS'c:/marmalade/7.4/modules/iwgx/h/IwColour.h'
p1255
(lp1256
I1
ag1242
asS'c:/marmalade/7.4/modules/iwgx/h/IwGxState.h'
p1257
(lp1258
I1
ag1242
asS'c:/marmalade/7.4/modules/iwgx/h/IwClip.h'
p1259
(lp1260
I1
ag1242
asS'c:/marmalade/7.4/modules/iwgx/h/IwTPage.h'
p1261
(lp1262
I1
ag1242
asS'c:/marmalade/7.4/modules/iwgx/h/IwMaterial.h'
p1263
(lp1264
I1
ag1242
asS'c:/marmalade/7.4/modules/iwgx/h/IwGxDebug.h'
p1265
(lp1266
I1
ag1242
asS'c:/marmalade/7.4/modules/iwgx/h/IwMatAnim.h'
p1267
(lp1268
I1
ag1242
asS'c:/marmalade/7.4/modules/iwgx/h/IwGxStream.h'
p1269
(lp1270
I1
ag1242
asS'c:/marmalade/7.4/modules/iwgx/h/IwResHandlerMTL.h'
p1271
(lp1272
I1
ag1242
asS'c:/marmalade/7.4/modules/iwgx/h/IwGxMetrics.h'
p1273
(lp1274
I1
ag1242
asS'c:/marmalade/7.4/modules/iwgx/h/IwGxError.h'
p1275
(lp1276
I1
ag1242
asS'c:/marmalade/7.4/modules/iwgx/docs/iwgx.config.txt'
p1277
(lp1278
I1
ag1242
asS'c:/marmalade/7.4/modules/iwgx/h/IwGxTransformSW.h'
p1279
(lp1280
I1
ag1242
asS'c:/marmalade/7.4/modules/iwgx/iwgx.mkf'
p1281
(lp1282
I1
a(dp1283
asS'c:/marmalade/7.4/modules/iwgx/docs/iwgx_public.defines.txt'
p1284
(lp1285
I1
ag1242
asS'c:/marmalade/7.4/modules/iwgx/h/IwGxShaderTechnique.h'
p1286
(lp1287
I1
ag1242
asS'c:/marmalade/7.4/modules/iwgx/h/IwGxTypes.h'
p1288
(lp1289
I1
ag1242
asS'c:/marmalade/7.4/modules/iwgx/h/IwGxSurface.h'
p1290
(lp1291
I1
ag1242
assS'iwutil'
p1292
(dp1293
S'c:/marmalade/7.4/modules/iwutil/h/IwTextParser.h'
p1294
(lp1295
I1
a(dp1296
asS'c:/marmalade/7.4/modules/iwutil/h/IwMenu.h'
p1297
(lp1298
I1
ag1296
asS'c:/marmalade/7.4/modules/iwutil/h/IwUtilInitTerm.h'
p1299
(lp1300
I1
ag1296
asS'c:/marmalade/7.4/modules/iwutil/h/IwCopyingPtr.h'
p1301
(lp1302
I1
ag1296
asS'c:/marmalade/7.4/modules/iwutil/h/IwDebug.h'
p1303
(lp1304
I1
ag1296
asS'c:/marmalade/7.4/modules/iwutil/h/IwDivTable.h'
p1305
(lp1306
I1
ag1296
asS'c:/marmalade/7.4/modules/iwutil/h/IwBuffer.h'
p1307
(lp1308
I1
ag1296
asS'c:/marmalade/7.4/modules/iwutil/h/IwRandom.h'
p1309
(lp1310
I1
ag1296
asS'c:/marmalade/7.4/modules/iwutil/h/IwResource.h'
p1311
(lp1312
I1
ag1296
asS'c:/marmalade/7.4/modules/iwutil/h/IwCore.h'
p1313
(lp1314
I1
ag1296
asS'c:/marmalade/7.4/modules/iwutil/h/IwTextParserITX.h'
p1315
(lp1316
I1
ag1296
asS'c:/marmalade/7.4/modules/iwutil/h/IwManaged.h'
p1317
(lp1318
I1
ag1296
asS'c:/marmalade/7.4/modules/iwutil/h/IwHashString.h'
p1319
(lp1320
I1
ag1296
asS'c:/marmalade/7.4/modules/iwutil/h/IwProfileMenu.h'
p1321
(lp1322
I1
ag1296
asS'c:/marmalade/7.4/modules/iwutil/h/IwManagedList.h'
p1323
(lp1324
I1
ag1296
asS'c:/marmalade/7.4/modules/iwutil/h/IwList.h'
p1325
(lp1326
I1
ag1296
asS'c:/marmalade/7.4/modules/iwutil/h/IwSerialise.h'
p1327
(lp1328
I1
ag1296
asS'c:/marmalade/7.4/modules/iwutil/h/IwClassFactory.h'
p1329
(lp1330
I1
ag1296
asS'c:/marmalade/7.4/modules/iwutil/h/IwTypes.h'
p1331
(lp1332
I1
ag1296
asS'c:/marmalade/7.4/modules/iwutil/h/IwAllocator.h'
p1333
(lp1334
I1
ag1296
asS'c:/marmalade/7.4/modules/iwutil/h/IwMemory.h'
p1335
(lp1336
I1
ag1296
asS'c:/marmalade/7.4/modules/iwutil/h/IwTextParseable.h'
p1337
(lp1338
I1
ag1296
asS'c:/marmalade/7.4/modules/iwutil/h/IwFile.h'
p1339
(lp1340
I1
ag1296
asS'c:/marmalade/7.4/modules/iwutil/h/IwRuntime.h'
p1341
(lp1342
I1
ag1296
asS'c:/marmalade/7.4/modules/iwutil/h/IwMemBucketHelpers.h'
p1343
(lp1344
I1
ag1296
asS'c:/marmalade/7.4/modules/iwutil/h/IwUncopyable.h'
p1345
(lp1346
I1
ag1296
asS'c:/marmalade/7.4/modules/iwutil/h/IwChar.h'
p1347
(lp1348
I1
ag1296
asS'c:/marmalade/7.4/modules/iwutil/h/IwOptimiseARM.h'
p1349
(lp1350
I1
ag1296
asS'c:/marmalade/7.4/modules/iwutil/h/IwImage.h'
p1351
(lp1352
I1
ag1296
asS'c:/marmalade/7.4/modules/iwutil/h/IwImageHelper.h'
p1353
(lp1354
I1
ag1296
asS'c:/marmalade/7.4/modules/iwutil/h/IwMemBucket.h'
p1355
(lp1356
I1
ag1296
asS'c:/marmalade/7.4/modules/iwutil/h/IwDivide.h'
p1357
(lp1358
I1
ag1296
asS'c:/marmalade/7.4/modules/iwutil/h/IwOptimiseSpeed.h'
p1359
(lp1360
I1
ag1296
asS'c:/marmalade/7.4/modules/iwutil/h/IwArray.h'
p1361
(lp1362
I1
ag1296
asS'c:/marmalade/7.4/modules/iwutil/docs/iwutil.config.txt'
p1363
(lp1364
I1
ag1296
asS'c:/marmalade/7.4/modules/iwutil/h/IwUTF8.h'
p1365
(lp1366
I1
ag1296
asS'c:/marmalade/7.4/modules/iwutil/h/IwEvent.h'
p1367
(lp1368
I1
ag1296
asS'c:/marmalade/7.4/modules/iwutil/h/IwMath.h'
p1369
(lp1370
I1
ag1296
asS'c:/marmalade/7.4/modules/iwutil/h/IwFibre.h'
p1371
(lp1372
I1
ag1296
asS'c:/marmalade/7.4/modules/iwutil/h/IwString.h'
p1373
(lp1374
I1
ag1296
asS'c:/marmalade/7.4/modules/iwutil/h/IwKeymap.h'
p1375
(lp1376
I1
ag1296
asS'c:/marmalade/7.4/modules/iwutil/iwutil.mkf'
p1377
(lp1378
I1
a(dp1379
asS'c:/marmalade/7.4/modules/iwutil/h/IwSingleton.h'
p1380
(lp1381
I1
ag1296
asS'c:/marmalade/7.4/modules/iwutil/h/IwAutoFile.h'
p1382
(lp1383
I1
ag1296
asS'c:/marmalade/7.4/modules/iwutil/h/IwOptimiseThumb.h'
p1384
(lp1385
I1
ag1296
asS'c:/marmalade/7.4/modules/iwutil/h/IwUtil.h'
p1386
(lp1387
I1
ag1296
asS'c:/marmalade/7.4/modules/iwutil/h/IwPath.h'
p1388
(lp1389
I1
ag1296
asS'c:/marmalade/7.4/modules/iwutil/h/IwMemManagerDL.h'
p1390
(lp1391
I1
ag1296
asS'c:/marmalade/7.4/modules/iwutil/h/IwVariableBitField.h'
p1392
(lp1393
I1
ag1296
asS'c:/marmalade/7.4/modules/iwutil/h/IwOptimiseSize.h'
p1394
(lp1395
I1
ag1296
asssS'(zlib)'
p1396
(dp1397
g1019
(dp1398
S'c:/marmalade/7.4/modules/third_party/zlib/h/zconf.h'
p1399
(lp1400
I1
a(dp1401
asS'c:/marmalade/7.4/modules/third_party/zlib/h/zlib.h'
p1402
(lp1403
I1
ag1401
assS'c:/marmalade/7.4/modules/third_party/zlib/zlib.mkf'
p1404
(lp1405
I1
a(dp1406
assS'e:/Documents/Michiel/Programmeren/Marmalade/MVSStage1/main.cpp'
p1407
(lp1408
I1
a(dp1409
assS'files'
p1410
(dp1411
S'IwGxFontPreparedData.h'
p1412
g303
(cmkb_main
File
p1413
g305
Ntp1414
Rp1415
(dp1416
S'flags'
p1417
g1120
sS'group'
p1418
(lp1419
S"'Marmalade Studio'"
p1420
ag1116
asg329
g1129
sbsS'iterator'
p1421
g303
(g1413
g305
Ntp1422
Rp1423
(dp1424
g1417
(dp1425
sg1418
(lp1426
S"'Marmalade System (S3E)'"
p1427
aS'stdc headers'
p1428
aS'c++'
p1429
asg329
S'c:/marmalade/7.4/s3e/h/std/c++/iterator'
p1430
sbsS'IwGL.h'
p1431
g303
(g1413
g305
Ntp1432
Rp1433
(dp1434
g1417
g1099
sg1418
(lp1435
S"'Marmalade Studio'"
p1436
ag1092
asg329
g1100
sbsS's3e.h'
p1437
g303
(g1413
g305
Ntp1438
Rp1439
(dp1440
g1417
g1425
sg1418
(lp1441
g1427
asg329
S'c:/marmalade/7.4/s3e/h/s3e.h'
p1442
sbsS'errno.h'
p1443
g303
(g1413
g305
Ntp1444
Rp1445
(dp1446
g1417
g1425
sg1418
(lp1447
g1427
aS'stdc headers'
p1448
asg329
S'c:/marmalade/7.4/s3e/h/std/errno.h'
p1449
sbsS'IwSingleton.h'
p1450
g303
(g1413
g305
Ntp1451
Rp1452
(dp1453
g1417
g1296
sg1418
(lp1454
S"'Marmalade Studio'"
p1455
ag1292
asg329
g1380
sbsS'dlfcn.h'
p1456
g303
(g1413
g305
Ntp1457
Rp1458
(dp1459
g1417
g1425
sg1418
g1447
sg329
S'c:/marmalade/7.4/s3e/h/std/dlfcn.h'
p1460
sbsS'stdio_streambuf'
p1461
g303
(g1413
g305
Ntp1462
Rp1463
(dp1464
g1417
g1425
sg1418
g1426
sg329
S'c:/marmalade/7.4/s3e/h/std/c++/stdio_streambuf'
p1465
sbsS'sched.h'
p1466
g303
(g1413
g305
Ntp1467
Rp1468
(dp1469
g1417
g1425
sg1418
g1447
sg329
S'c:/marmalade/7.4/s3e/h/std/sched.h'
p1470
sbsS'IwGeomFMat2D.h'
p1471
g303
(g1413
g305
Ntp1472
Rp1473
(dp1474
g1417
g1142
sg1418
(lp1475
S"'Marmalade Studio'"
p1476
ag1138
asg329
g1158
sbsS's3eExt.h'
p1477
g303
(g1413
g305
Ntp1478
Rp1479
(dp1480
g1417
g1425
sg1418
g1441
sg329
S'c:/marmalade/7.4/s3e/h/s3eExt.h'
p1481
sbsS'grp.h'
p1482
g303
(g1413
g305
Ntp1483
Rp1484
(dp1485
g1417
g1425
sg1418
g1447
sg329
S'c:/marmalade/7.4/s3e/h/std/grp.h'
p1486
sbsS'list'
p1487
g303
(g1413
g305
Ntp1488
Rp1489
(dp1490
g1417
g1425
sg1418
g1426
sg329
S'c:/marmalade/7.4/s3e/h/std/c++/list'
p1491
sbsS'IwGeomMat.h.tpl'
p1492
g303
(g1413
g305
Ntp1493
Rp1494
(dp1495
g1417
g1142
sg1418
g1475
sg329
g1206
sbsS'istream'
p1496
g303
(g1413
g305
Ntp1497
Rp1498
(dp1499
g1417
g1425
sg1418
g1426
sg329
S'c:/marmalade/7.4/s3e/h/std/c++/istream'
p1500
sbsS'jpeglib.h'
p1501
g303
(g1413
g305
Ntp1502
Rp1503
(dp1504
g1417
g1034
sg1418
(lp1505
g1029
ag1019
asg329
g1039
sbsS'iw2d_public.defines.txt'
p1506
g303
(g1413
g305
Ntp1507
Rp1508
(dp1509
g1417
g1108
sg1418
(lp1510
S"'Marmalade Studio'"
p1511
ag1104
asg329
g1109
sbsS'iostream.h'
p1512
g303
(g1413
g305
Ntp1513
Rp1514
(dp1515
g1417
g1425
sg1418
g1426
sg329
S'c:/marmalade/7.4/s3e/h/std/c++/iostream.h'
p1516
sbsS'string'
p1517
g303
(g1413
g305
Ntp1518
Rp1519
(dp1520
g1417
g1425
sg1418
g1426
sg329
S'c:/marmalade/7.4/s3e/h/std/c++/string'
p1521
sbsS'IwMemory.h'
p1522
g303
(g1413
g305
Ntp1523
Rp1524
(dp1525
g1417
g1296
sg1418
g1454
sg329
g1335
sbsS'IwGeomPlane.h'
p1526
g303
(g1413
g305
Ntp1527
Rp1528
(dp1529
g1417
g1142
sg1418
g1475
sg329
g1172
sbsS'iw2d.config.txt'
p1530
g303
(g1413
g305
Ntp1531
Rp1532
(dp1533
g1417
g1108
sg1418
g1510
sg329
g1106
sbsS'iomanip'
p1534
g303
(g1413
g305
Ntp1535
Rp1536
(dp1537
g1417
g1425
sg1418
g1426
sg329
S'c:/marmalade/7.4/s3e/h/std/c++/iomanip'
p1538
sbsS'iwgeom.mkf'
p1539
g303
(g1413
g305
Ntp1540
Rp1541
(dp1542
g1417
g1149
sg1418
g1475
sg329
g1147
sbsS'IwGxError.h'
p1543
g303
(g1413
g305
Ntp1544
Rp1545
(dp1546
g1417
g1242
sg1418
(lp1547
S"'Marmalade Studio'"
p1548
ag1238
asg329
g1275
sbsS'IwGeom.h'
p1549
g303
(g1413
g305
Ntp1550
Rp1551
(dp1552
g1417
g1142
sg1418
g1475
sg329
g1204
sbsS'IwGeomVec4.h'
p1553
g303
(g1413
g305
Ntp1554
Rp1555
(dp1556
g1417
g1142
sg1418
g1475
sg329
g1190
sbsS'dir.h'
p1557
g303
(g1413
g305
Ntp1558
Rp1559
(dp1560
g1417
g1425
sg1418
(lp1561
g1427
aS'stdc headers'
p1562
aS'sys'
p1563
asg329
S'c:/marmalade/7.4/s3e/h/std/sys/dir.h'
p1564
sbsS'locale.h'
p1565
g303
(g1413
g305
Ntp1566
Rp1567
(dp1568
g1417
g1425
sg1418
g1447
sg329
S'c:/marmalade/7.4/s3e/h/std/locale.h'
p1569
sbsS'vector'
p1570
g303
(g1413
g305
Ntp1571
Rp1572
(dp1573
g1417
g1425
sg1418
g1426
sg329
S'c:/marmalade/7.4/s3e/h/std/c++/vector'
p1574
sbsS'IwManaged.h'
p1575
g303
(g1413
g305
Ntp1576
Rp1577
(dp1578
g1417
g1296
sg1418
g1454
sg329
g1317
sbsS's3eCompass.h'
p1579
g303
(g1413
g305
Ntp1580
Rp1581
(dp1582
g1417
g1425
sg1418
g1441
sg329
S'c:/marmalade/7.4/s3e/h/s3eCompass.h'
p1583
sbsS'cderror.h'
p1584
g303
(g1413
g305
Ntp1585
Rp1586
(dp1587
g1417
g1034
sg1418
g1505
sg329
g1047
sbsS'climits'
p1588
g303
(g1413
g305
Ntp1589
Rp1590
(dp1591
g1417
g1425
sg1418
g1426
sg329
S'c:/marmalade/7.4/s3e/h/std/c++/climits'
p1592
sbsS's3eVibra.h'
p1593
g303
(g1413
g305
Ntp1594
Rp1595
(dp1596
g1417
g1425
sg1418
g1441
sg329
S'c:/marmalade/7.4/s3e/h/s3eVibra.h'
p1597
sbsS'jversion.h'
p1598
g303
(g1413
g305
Ntp1599
Rp1600
(dp1601
g1417
g1034
sg1418
g1505
sg329
g1051
sbsS'fnmatch.h'
p1602
g303
(g1413
g305
Ntp1603
Rp1604
(dp1605
g1417
g1425
sg1418
g1447
sg329
S'c:/marmalade/7.4/s3e/h/std/fnmatch.h'
p1606
sbsS'IwGxState.h'
p1607
g303
(g1413
g305
Ntp1608
Rp1609
(dp1610
g1417
g1242
sg1418
g1547
sg329
g1257
sbsS's3eAudio.h'
p1611
g303
(g1413
g305
Ntp1612
Rp1613
(dp1614
g1417
g1425
sg1418
g1441
sg329
S'c:/marmalade/7.4/s3e/h/s3eAudio.h'
p1615
sbsS's3eSurface.h'
p1616
g303
(g1413
g305
Ntp1617
Rp1618
(dp1619
g1417
g1425
sg1418
g1441
sg329
S'c:/marmalade/7.4/s3e/h/s3eSurface.h'
p1620
sbsS'new'
p1621
g303
(g1413
g305
Ntp1622
Rp1623
(dp1624
g1417
g1425
sg1418
g1426
sg329
S'c:/marmalade/7.4/s3e/h/std/c++/new'
p1625
sbsS's3eWindow.h'
p1626
g303
(g1413
g305
Ntp1627
Rp1628
(dp1629
g1417
g1425
sg1418
(lp1630
g1427
aS'Extensions'
p1631
asg329
S'c:/marmalade/7.4/s3e/h/ext/s3eWindow.h'
p1632
sbsS'IwBuffer.h'
p1633
g303
(g1413
g305
Ntp1634
Rp1635
(dp1636
g1417
g1296
sg1418
g1454
sg329
g1307
sbsS'IwGeomQuat.h.tpl'
p1637
g303
(g1413
g305
Ntp1638
Rp1639
(dp1640
g1417
g1142
sg1418
g1475
sg329
g1174
sbsS's3eOSExec.h'
p1641
g303
(g1413
g305
Ntp1642
Rp1643
(dp1644
g1417
g1425
sg1418
g1630
sg329
S'c:/marmalade/7.4/s3e/h/ext/s3eOSExec.h'
p1645
sbsS'IwGxTransformSW.h'
p1646
g303
(g1413
g305
Ntp1647
Rp1648
(dp1649
g1417
g1242
sg1418
g1547
sg329
g1279
sbsS'IwGxMetrics.h'
p1650
g303
(g1413
g305
Ntp1651
Rp1652
(dp1653
g1417
g1242
sg1418
g1547
sg329
g1273
sbsS'iwgxfont.config.txt'
p1654
g303
(g1413
g305
Ntp1655
Rp1656
(dp1657
g1417
g1120
sg1418
g1419
sg329
g1123
sbsS'gl2platform.h'
p1658
g303
(g1413
g305
Ntp1659
Rp1660
(dp1661
g1417
g1425
sg1418
(lp1662
g1427
aS'GL'
p1663
aS'GLES 2.0'
p1664
asg329
S'c:/marmalade/7.4/s3e/h/GLES2/gl2platform.h'
p1665
sbsS'IwResManagerClass.h'
p1666
g303
(g1413
g305
Ntp1667
Rp1668
(dp1669
g1417
g1218
sg1418
(lp1670
g1090
ag1214
asg329
g1223
sbsS'queue'
p1671
g303
(g1413
g305
Ntp1672
Rp1673
(dp1674
g1417
g1425
sg1418
g1426
sg329
S'c:/marmalade/7.4/s3e/h/std/c++/queue'
p1675
sbsS'time_1.h'
p1676
g303
(g1413
g305
Ntp1677
Rp1678
(dp1679
g1417
g1425
sg1418
g1561
sg329
S'c:/marmalade/7.4/s3e/h/std/sys/time.h'
p1680
sbsS'Iw2D.h'
p1681
g303
(g1413
g305
Ntp1682
Rp1683
(dp1684
g1417
g1108
sg1418
g1510
sg329
g1111
sbsS'IwGeomVec2.h'
p1685
g303
(g1413
g305
Ntp1686
Rp1687
(dp1688
g1417
g1142
sg1418
g1475
sg329
g1182
sbsS's3eDevice.h'
p1689
g303
(g1413
g305
Ntp1690
Rp1691
(dp1692
g1417
g1425
sg1418
g1441
sg329
S'c:/marmalade/7.4/s3e/h/s3eDevice.h'
p1693
sbsS'malloc.h'
p1694
g303
(g1413
g305
Ntp1695
Rp1696
(dp1697
g1417
g1425
sg1418
g1447
sg329
S'c:/marmalade/7.4/s3e/h/std/malloc.h'
p1698
sbsS'stdarg.h'
p1699
g303
(g1413
g305
Ntp1700
Rp1701
(dp1702
g1417
g1425
sg1418
g1447
sg329
S'c:/marmalade/7.4/s3e/h/std/stdarg.h'
p1703
sbsS'IwGeomCore.h'
p1704
g303
(g1413
g305
Ntp1705
Rp1706
(dp1707
g1417
g1142
sg1418
g1475
sg329
g1188
sbsS'endian.h'
p1708
g303
(g1413
g305
Ntp1709
Rp1710
(dp1711
g1417
g1425
sg1418
g1447
sg329
S'c:/marmalade/7.4/s3e/h/std/endian.h'
p1712
sbsS'gl3ext.h'
p1713
g303
(g1413
g305
Ntp1714
Rp1715
(dp1716
g1417
g1425
sg1418
(lp1717
g1427
aS'GL'
p1718
aS'GLES 3.0'
p1719
asg329
S'c:/marmalade/7.4/s3e/h/GLES3/gl3ext.h'
p1720
sbsS'glob.h'
p1721
g303
(g1413
g305
Ntp1722
Rp1723
(dp1724
g1417
g1425
sg1418
g1447
sg329
S'c:/marmalade/7.4/s3e/h/std/glob.h'
p1725
sbsS'fstream'
p1726
g303
(g1413
g305
Ntp1727
Rp1728
(dp1729
g1417
g1425
sg1418
g1426
sg329
S'c:/marmalade/7.4/s3e/h/std/c++/fstream'
p1730
sbsS's3eCamera.h'
p1731
g303
(g1413
g305
Ntp1732
Rp1733
(dp1734
g1417
g1425
sg1418
g1441
sg329
S'c:/marmalade/7.4/s3e/h/s3eCamera.h'
p1735
sbsS'jconfig.h'
p1736
g303
(g1413
g305
Ntp1737
Rp1738
(dp1739
g1417
g1034
sg1418
g1505
sg329
g1045
sbsS'memory'
p1740
g303
(g1413
g305
Ntp1741
Rp1742
(dp1743
g1417
g1425
sg1418
g1426
sg329
S'c:/marmalade/7.4/s3e/h/std/c++/memory'
p1744
sbsS'egl.h'
p1745
g303
(g1413
g305
Ntp1746
Rp1747
(dp1748
g1417
g1425
sg1418
(lp1749
g1427
aS'GL'
p1750
aS'EGL'
p1751
asg329
S'c:/marmalade/7.4/s3e/h/EGL/egl.h'
p1752
sbsS'IwClip.inl'
p1753
g303
(g1413
g305
Ntp1754
Rp1755
(dp1756
g1417
g1242
sg1418
g1547
sg329
g1245
sbsS'IwMemManagerDL.h'
p1757
g303
(g1413
g305
Ntp1758
Rp1759
(dp1760
g1417
g1296
sg1418
g1454
sg329
g1390
sbsS'deque'
p1761
g303
(g1413
g305
Ntp1762
Rp1763
(dp1764
g1417
g1425
sg1418
g1426
sg329
S'c:/marmalade/7.4/s3e/h/std/c++/deque'
p1765
sbsS'IwString.h'
p1766
g303
(g1413
g305
Ntp1767
Rp1768
(dp1769
g1417
g1296
sg1418
g1454
sg329
g1373
sbsS'cwchar'
p1770
g303
(g1413
g305
Ntp1771
Rp1772
(dp1773
g1417
g1425
sg1418
g1426
sg329
S'c:/marmalade/7.4/s3e/h/std/c++/cwchar'
p1774
sbsS'iwutil.mkf'
p1775
g303
(g1413
g305
Ntp1776
Rp1777
(dp1778
g1417
g1379
sg1418
g1454
sg329
g1377
sbsS'csignal'
p1779
g303
(g1413
g305
Ntp1780
Rp1781
(dp1782
g1417
g1425
sg1418
g1426
sg329
S'c:/marmalade/7.4/s3e/h/std/c++/csignal'
p1783
sbsS'float.h'
p1784
g303
(g1413
g305
Ntp1785
Rp1786
(dp1787
g1417
g1425
sg1418
g1447
sg329
S'c:/marmalade/7.4/s3e/h/std/float.h'
p1788
sbsS'pthread_alloc'
p1789
g303
(g1413
g305
Ntp1790
Rp1791
(dp1792
g1417
g1425
sg1418
g1426
sg329
S'c:/marmalade/7.4/s3e/h/std/c++/pthread_alloc'
p1793
sbsS'getopt.h'
p1794
g303
(g1413
g305
Ntp1795
Rp1796
(dp1797
g1417
g1425
sg1418
g1447
sg329
S'c:/marmalade/7.4/s3e/h/std/getopt.h'
p1798
sbsS'IwOptimiseARM.h'
p1799
g303
(g1413
g305
Ntp1800
Rp1801
(dp1802
g1417
g1296
sg1418
g1454
sg329
g1349
sbsS'times.h'
p1803
g303
(g1413
g305
Ntp1804
Rp1805
(dp1806
g1417
g1425
sg1418
g1561
sg329
S'c:/marmalade/7.4/s3e/h/std/sys/times.h'
p1807
sbsS'IwGeomFSphere.h'
p1808
g303
(g1413
g305
Ntp1809
Rp1810
(dp1811
g1417
g1142
sg1418
g1475
sg329
g1152
sbsS'functional'
p1812
g303
(g1413
g305
Ntp1813
Rp1814
(dp1815
g1417
g1425
sg1418
g1426
sg329
S'c:/marmalade/7.4/s3e/h/std/c++/functional'
p1816
sbsS'IwTypes.h'
p1817
g303
(g1413
g305
Ntp1818
Rp1819
(dp1820
g1417
g1296
sg1418
g1454
sg329
g1331
sbsS'unistd.h'
p1821
g303
(g1413
g305
Ntp1822
Rp1823
(dp1824
g1417
g1425
sg1418
g1447
sg329
S'c:/marmalade/7.4/s3e/h/std/unistd.h'
p1825
sbsS's3eCompression.h'
p1826
g303
(g1413
g305
Ntp1827
Rp1828
(dp1829
g1417
g1425
sg1418
g1441
sg329
S'c:/marmalade/7.4/s3e/h/s3eCompression.h'
p1830
sbsS'langinfo.h'
p1831
g303
(g1413
g305
Ntp1832
Rp1833
(dp1834
g1417
g1425
sg1418
g1447
sg329
S'c:/marmalade/7.4/s3e/h/std/langinfo.h'
p1835
sbsS's3edebugHeap.h'
p1836
g303
(g1413
g305
Ntp1837
Rp1838
(dp1839
g1417
g1425
sg1418
g1630
sg329
S'c:/marmalade/7.4/s3e/h/ext/s3edebugHeap.h'
p1840
sbsS'AirplayVersion.h'
p1841
g303
(g1413
g305
Ntp1842
Rp1843
(dp1844
g1417
g1425
sg1418
g1441
sg329
S'c:/marmalade/7.4/s3e/h/AirplayVersion.h'
p1845
sbsS'gl2extimg.h'
p1846
g303
(g1413
g305
Ntp1847
Rp1848
(dp1849
g1417
g1425
sg1418
g1662
sg329
S'c:/marmalade/7.4/s3e/h/GLES2/gl2extimg.h'
p1850
sbsS'app.config.txt'
p1851
g303
(g1413
g305
Ntp1852
Rp1853
(dp1854
g1417
(dp1855
sg1418
g4
sg329
S'e:/Documents/Michiel/Programmeren/Marmalade/MVSStage1/data/app.config.txt'
p1856
sbsS'IwGeomSqrt.h'
p1857
g303
(g1413
g305
Ntp1858
Rp1859
(dp1860
g1417
g1142
sg1418
g1475
sg329
g1212
sbsS'tiniconv_int.h'
p1861
g303
(g1413
g305
Ntp1862
Rp1863
(dp1864
g1417
g1068
sg1418
(lp1865
g1064
asg329
g1066
sbsS'syslog.h'
p1866
g303
(g1413
g305
Ntp1867
Rp1868
(dp1869
g1417
g1425
sg1418
g1447
sg329
S'c:/marmalade/7.4/s3e/h/std/syslog.h'
p1870
sbsS'IwGxFontTypes.h'
p1871
g303
(g1413
g305
Ntp1872
Rp1873
(dp1874
g1417
g1120
sg1418
g1419
sg329
g1127
sbsS'IwGeomFIntersect.h'
p1875
g303
(g1413
g305
Ntp1876
Rp1877
(dp1878
g1417
g1142
sg1418
g1475
sg329
g1143
sbsS'hash_map'
p1879
g303
(g1413
g305
Ntp1880
Rp1881
(dp1882
g1417
g1425
sg1418
g1426
sg329
S'c:/marmalade/7.4/s3e/h/std/c++/hash_map'
p1883
sbsS's3e.mkf'
p1884
g303
(g1413
g305
Ntp1885
Rp1886
(dp1887
g1417
(dp1888
sg1418
g1441
sg329
S'c:/marmalade/7.4/s3e/s3e.mkf'
p1889
sbsS'IwGeomMat2D.h.tpl'
p1890
g303
(g1413
g305
Ntp1891
Rp1892
(dp1893
g1417
g1142
sg1418
g1475
sg329
g1145
sbsS's3eOSReadString.h'
p1894
g303
(g1413
g305
Ntp1895
Rp1896
(dp1897
g1417
g1425
sg1418
g1630
sg329
S'c:/marmalade/7.4/s3e/h/ext/s3eOSReadString.h'
p1898
sbsS'map'
p1899
g303
(g1413
g305
Ntp1900
Rp1901
(dp1902
g1417
g1425
sg1418
g1426
sg329
S'c:/marmalade/7.4/s3e/h/std/c++/map'
p1903
sbsS'IwOptimiseSpeed.h'
p1904
g303
(g1413
g305
Ntp1905
Rp1906
(dp1907
g1417
g1296
sg1418
g1454
sg329
g1359
sbsS'msl_string.h'
p1908
g303
(g1413
g305
Ntp1909
Rp1910
(dp1911
g1417
g1425
sg1418
g1426
sg329
S'c:/marmalade/7.4/s3e/h/std/c++/msl_string.h'
p1912
sbsS'select.h'
p1913
g303
(g1413
g305
Ntp1914
Rp1915
(dp1916
g1417
g1425
sg1418
g1561
sg329
S'c:/marmalade/7.4/s3e/h/std/sys/select.h'
p1917
sbsS'zlib.mkf'
p1918
g303
(g1413
g305
Ntp1919
Rp1920
(dp1921
g1417
g1406
sg1418
(lp1922
g1396
asg329
g1404
sbsS'signal.h'
p1923
g303
(g1413
g305
Ntp1924
Rp1925
(dp1926
g1417
g1425
sg1418
g1447
sg329
S'c:/marmalade/7.4/s3e/h/std/signal.h'
p1927
sbsS'sigcontext.h'
p1928
g303
(g1413
g305
Ntp1929
Rp1930
(dp1931
g1417
g1425
sg1418
g1447
sg329
S'c:/marmalade/7.4/s3e/h/std/sigcontext.h'
p1932
sbsS'libpng.mkf'
p1933
g303
(g1413
g305
Ntp1934
Rp1935
(dp1936
g1417
g1028
sg1418
(lp1937
g1017
asg329
g1026
sbsS's3eClipboard.h'
p1938
g303
(g1413
g305
Ntp1939
Rp1940
(dp1941
g1417
g1425
sg1418
g1441
sg329
S'c:/marmalade/7.4/s3e/h/s3eClipboard.h'
p1942
sbsS'IwGxFuncTable.h'
p1943
g303
(g1413
g305
Ntp1944
Rp1945
(dp1946
g1417
g1242
sg1418
g1547
sg329
g1243
sbsS'IwResHandlerGROUP.h'
p1947
g303
(g1413
g305
Ntp1948
Rp1949
(dp1950
g1417
g1218
sg1418
g1670
sg329
g1227
sbsS's3eDebug.h'
p1951
g303
(g1413
g305
Ntp1952
Rp1953
(dp1954
g1417
g1425
sg1418
g1441
sg329
S'c:/marmalade/7.4/s3e/h/s3eDebug.h'
p1955
sbsS'socket.h'
p1956
g303
(g1413
g305
Ntp1957
Rp1958
(dp1959
g1417
g1425
sg1418
g1561
sg329
S'c:/marmalade/7.4/s3e/h/std/sys/socket.h'
p1960
sbsS'glext.h'
p1961
g303
(g1413
g305
Ntp1962
Rp1963
(dp1964
g1417
g1425
sg1418
(lp1965
g1427
aS'GL'
p1966
aS'GLES 1.x'
p1967
asg329
S'c:/marmalade/7.4/s3e/h/GLES/glext.h'
p1968
sbsS'typeinfo.h'
p1969
g303
(g1413
g305
Ntp1970
Rp1971
(dp1972
g1417
g1425
sg1418
g1426
sg329
S'c:/marmalade/7.4/s3e/h/std/c++/typeinfo.h'
p1973
sbsS'typeinfo'
p1974
g303
(g1413
g305
Ntp1975
Rp1976
(dp1977
g1417
g1425
sg1418
g1426
sg329
S'c:/marmalade/7.4/s3e/h/std/c++/typeinfo'
p1978
sbsS'fstream.h'
p1979
g303
(g1413
g305
Ntp1980
Rp1981
(dp1982
g1417
g1425
sg1418
g1426
sg329
S'c:/marmalade/7.4/s3e/h/std/c++/fstream.h'
p1983
sbsS's3ePointer.h'
p1984
g303
(g1413
g305
Ntp1985
Rp1986
(dp1987
g1417
g1425
sg1418
g1441
sg329
S'c:/marmalade/7.4/s3e/h/s3ePointer.h'
p1988
sbsS'IwMemBucket.h'
p1989
g303
(g1413
g305
Ntp1990
Rp1991
(dp1992
g1417
g1296
sg1418
g1454
sg329
g1355
sbsS'PVRTexTool.h'
p1993
g303
(g1413
g305
Ntp1994
Rp1995
(dp1996
g1417
g1082
sg1418
(lp1997
g1074
ag1076
asg329
g1088
sbsS's3eGL.h'
p1998
g303
(g1413
g305
Ntp1999
Rp2000
(dp2001
g1417
g1425
sg1418
g1441
sg329
S'c:/marmalade/7.4/s3e/h/s3eGL.h'
p2002
sbsS'IwGeomFVec2.h'
p2003
g303
(g1413
g305
Ntp2004
Rp2005
(dp2006
g1417
g1142
sg1418
g1475
sg329
g1168
sbsS'IwGeomSVec4.h'
p2007
g303
(g1413
g305
Ntp2008
Rp2009
(dp2010
g1417
g1142
sg1418
g1475
sg329
g1166
sbsS'poll.h'
p2011
g303
(g1413
g305
Ntp2012
Rp2013
(dp2014
g1417
g1425
sg1418
g1447
sg329
S'c:/marmalade/7.4/s3e/h/std/poll.h'
p2015
sbsS'IwMatAnim.h'
p2016
g303
(g1413
g305
Ntp2017
Rp2018
(dp2019
g1417
g1242
sg1418
g1547
sg329
g1267
sbsS'PVRTexTool.defines.txt'
p2020
g303
(g1413
g305
Ntp2021
Rp2022
(dp2023
g1417
g1082
sg1418
(lp2024
g1074
ag1076
ag1078
asg329
g1083
sbsS'IwGx.h'
p2025
g303
(g1413
g305
Ntp2026
Rp2027
(dp2028
g1417
g1242
sg1418
g1547
sg329
g1249
sbsS'valarray'
p2029
g303
(g1413
g305
Ntp2030
Rp2031
(dp2032
g1417
g1425
sg1418
g1426
sg329
S'c:/marmalade/7.4/s3e/h/std/c++/valarray'
p2033
sbsS'iosfwd'
p2034
g303
(g1413
g305
Ntp2035
Rp2036
(dp2037
g1417
g1425
sg1418
g1426
sg329
S'c:/marmalade/7.4/s3e/h/std/c++/iosfwd'
p2038
sbsS'gl2.h'
p2039
g303
(g1413
g305
Ntp2040
Rp2041
(dp2042
g1417
g1425
sg1418
g1662
sg329
S'c:/marmalade/7.4/s3e/h/GLES2/gl2.h'
p2043
sbsS'jpegint.h'
p2044
g303
(g1413
g305
Ntp2045
Rp2046
(dp2047
g1417
g1034
sg1418
g1505
sg329
g1057
sbsS'stdiostream.h'
p2048
g303
(g1413
g305
Ntp2049
Rp2050
(dp2051
g1417
g1425
sg1418
g1426
sg329
S'c:/marmalade/7.4/s3e/h/std/c++/stdiostream.h'
p2052
sbsS'mem.h'
p2053
g303
(g1413
g305
Ntp2054
Rp2055
(dp2056
g1417
g1425
sg1418
g1426
sg329
S'c:/marmalade/7.4/s3e/h/std/c++/mem.h'
p2057
sbsS'jerror.h'
p2058
g303
(g1413
g305
Ntp2059
Rp2060
(dp2061
g1417
g1034
sg1418
g1505
sg329
g1032
sbsS'zconf.h'
p2062
g303
(g1413
g305
Ntp2063
Rp2064
(dp2065
g1417
g1401
sg1418
(lp2066
g1396
ag1019
asg329
g1399
sbsS's3e.config.txt'
p2067
g303
(g1413
g305
Ntp2068
Rp2069
(dp2070
g1417
g1425
sg1418
g1441
sg329
S'c:/marmalade/7.4/s3e/s3e.config.txt'
p2071
sbsS'numeric'
p2072
g303
(g1413
g305
Ntp2073
Rp2074
(dp2075
g1417
g1425
sg1418
g1426
sg329
S'c:/marmalade/7.4/s3e/h/std/c++/numeric'
p2076
sbsS'utime.h'
p2077
g303
(g1413
g305
Ntp2078
Rp2079
(dp2080
g1417
g1425
sg1418
g1447
sg329
S'c:/marmalade/7.4/s3e/h/std/utime.h'
p2081
sbsS'jdhuff.h'
p2082
g303
(g1413
g305
Ntp2083
Rp2084
(dp2085
g1417
g1034
sg1418
g1505
sg329
g1055
sbsS'IwGxStream.h'
p2086
g303
(g1413
g305
Ntp2087
Rp2088
(dp2089
g1417
g1242
sg1418
g1547
sg329
g1269
sbsS'IwImage.h'
p2090
g303
(g1413
g305
Ntp2091
Rp2092
(dp2093
g1417
g1296
sg1418
g1454
sg329
g1351
sbsS's3eImagePicker.h'
p2094
g303
(g1413
g305
Ntp2095
Rp2096
(dp2097
g1417
g1425
sg1418
g1630
sg329
S'c:/marmalade/7.4/s3e/h/ext/s3eImagePicker.h'
p2098
sbsS'IwTextParserITX.h'
p2099
g303
(g1413
g305
Ntp2100
Rp2101
(dp2102
g1417
g1296
sg1418
g1454
sg329
g1315
sbsS'stdlib.h'
p2103
g303
(g1413
g305
Ntp2104
Rp2105
(dp2106
g1417
g1425
sg1418
g1447
sg329
S'c:/marmalade/7.4/s3e/h/std/stdlib.h'
p2107
sbsS'IwCopyingPtr.h'
p2108
g303
(g1413
g305
Ntp2109
Rp2110
(dp2111
g1417
g1296
sg1418
g1454
sg329
g1301
sbsS'iostream'
p2112
g303
(g1413
g305
Ntp2113
Rp2114
(dp2115
g1417
g1425
sg1418
g1426
sg329
S'c:/marmalade/7.4/s3e/h/std/c++/iostream'
p2116
sbsS'png.h'
p2117
g303
(g1413
g305
Ntp2118
Rp2119
(dp2120
g1417
g1023
sg1418
(lp2121
g1017
ag1019
asg329
g1021
sbsS'stddef.h'
p2122
g303
(g1413
g305
Ntp2123
Rp2124
(dp2125
g1417
g1425
sg1418
g1447
sg329
S'c:/marmalade/7.4/s3e/h/std/stddef.h'
p2126
sbsS'setjmp_win32.h'
p2127
g303
(g1413
g305
Ntp2128
Rp2129
(dp2130
g1417
g1425
sg1418
g1447
sg329
S'c:/marmalade/7.4/s3e/h/std/setjmp_win32.h'
p2131
sbsS'IwGxPrint.h'
p2132
g303
(g1413
g305
Ntp2133
Rp2134
(dp2135
g1417
g1242
sg1418
g1547
sg329
g1247
sbsS'iwgx_public.defines.txt'
p2136
g303
(g1413
g305
Ntp2137
Rp2138
(dp2139
g1417
g1242
sg1418
g1547
sg329
g1284
sbsS'streambuf.h'
p2140
g303
(g1413
g305
Ntp2141
Rp2142
(dp2143
g1417
g1425
sg1418
g1426
sg329
S'c:/marmalade/7.4/s3e/h/std/c++/streambuf.h'
p2144
sbsS'IwGeomFPlane.h'
p2145
g303
(g1413
g305
Ntp2146
Rp2147
(dp2148
g1417
g1142
sg1418
g1475
sg329
g1208
sbsS'wchar.h'
p2149
g303
(g1413
g305
Ntp2150
Rp2151
(dp2152
g1417
g1425
sg1418
g1447
sg329
S'c:/marmalade/7.4/s3e/h/std/wchar.h'
p2153
sbsS's3eCameraCapture.h'
p2154
g303
(g1413
g305
Ntp2155
Rp2156
(dp2157
g1417
g1425
sg1418
g1630
sg329
S'c:/marmalade/7.4/s3e/h/ext/s3eCameraCapture.h'
p2158
sbsS'eglext.h'
p2159
g303
(g1413
g305
Ntp2160
Rp2161
(dp2162
g1417
g1425
sg1418
g1749
sg329
S'c:/marmalade/7.4/s3e/h/EGL/eglext.h'
p2163
sbsS'IwResHandlerImage.h'
p2164
g303
(g1413
g305
Ntp2165
Rp2166
(dp2167
g1417
g1218
sg1418
g1670
sg329
g1232
sbsS'strstream.h'
p2168
g303
(g1413
g305
Ntp2169
Rp2170
(dp2171
g1417
g1425
sg1418
g1426
sg329
S'c:/marmalade/7.4/s3e/h/std/c++/strstream.h'
p2172
sbsS'tiniconv.h'
p2173
g303
(g1413
g305
Ntp2174
Rp2175
(dp2176
g1417
g1068
sg1418
g1865
sg329
g1072
sbsS'IwGLExt.h'
p2177
g303
(g1413
g305
Ntp2178
Rp2179
(dp2180
g1417
g1099
sg1418
g1435
sg329
g1102
sbsS'app.icf'
p2181
g303
(g1413
g305
Ntp2182
Rp2183
(dp2184
g1417
(dp2185
sg1418
g4
sg329
S'e:/Documents/Michiel/Programmeren/Marmalade/MVSStage1/data/app.icf'
p2186
sbsS'IwClassFactory.h'
p2187
g303
(g1413
g305
Ntp2188
Rp2189
(dp2190
g1417
g1296
sg1418
g1454
sg329
g1329
sbsS'file.h'
p2191
g303
(g1413
g305
Ntp2192
Rp2193
(dp2194
g1417
g1425
sg1418
g1561
sg329
S'c:/marmalade/7.4/s3e/h/std/sys/file.h'
p2195
sbsS'cstring'
p2196
g303
(g1413
g305
Ntp2197
Rp2198
(dp2199
g1417
g1425
sg1418
g1426
sg329
S'c:/marmalade/7.4/s3e/h/std/c++/cstring'
p2200
sbsS'iwutil.config.txt'
p2201
g303
(g1413
g305
Ntp2202
Rp2203
(dp2204
g1417
g1296
sg1418
g1454
sg329
g1363
sbsS's3eSMS.h'
p2205
g303
(g1413
g305
Ntp2206
Rp2207
(dp2208
g1417
g1425
sg1418
g1630
sg329
S'c:/marmalade/7.4/s3e/h/ext/s3eSMS.h'
p2209
sbsS'limits.h'
p2210
g303
(g1413
g305
Ntp2211
Rp2212
(dp2213
g1417
g1425
sg1418
g1447
sg329
S'c:/marmalade/7.4/s3e/h/std/limits.h'
p2214
sbsS'iwgl.config.txt'
p2215
g303
(g1413
g305
Ntp2216
Rp2217
(dp2218
g1417
g1099
sg1418
g1435
sg329
g1097
sbsS'IwMaterial.h'
p2219
g303
(g1413
g305
Ntp2220
Rp2221
(dp2222
g1417
g1242
sg1418
g1547
sg329
g1263
sbsS'PVRTexTool_interface.cpp'
p2223
g303
(g1413
g305
Ntp2224
Rp2225
(dp2226
g1417
g1082
sg1418
g2024
sg329
g1080
sbsS'IwGxSurface.h'
p2227
g303
(g1413
g305
Ntp2228
Rp2229
(dp2230
g1417
g1242
sg1418
g1547
sg329
g1290
sbsS's3eSocket.h'
p2231
g303
(g1413
g305
Ntp2232
Rp2233
(dp2234
g1417
g1425
sg1418
g1441
sg329
S'c:/marmalade/7.4/s3e/h/s3eSocket.h'
p2235
sbsS'IwAutoFile.h'
p2236
g303
(g1413
g305
Ntp2237
Rp2238
(dp2239
g1417
g1296
sg1418
g1454
sg329
g1382
sbsS'ipc.h'
p2240
g303
(g1413
g305
Ntp2241
Rp2242
(dp2243
g1417
g1425
sg1418
g1561
sg329
S'c:/marmalade/7.4/s3e/h/std/sys/ipc.h'
p2244
sbsS'poll_1.h'
p2245
g303
(g1413
g305
Ntp2246
Rp2247
(dp2248
g1417
g1425
sg1418
g1561
sg329
S'c:/marmalade/7.4/s3e/h/std/sys/poll.h'
p2249
sbsS's3eThread.h'
p2250
g303
(g1413
g305
Ntp2251
Rp2252
(dp2253
g1417
g1425
sg1418
g1441
sg329
S'c:/marmalade/7.4/s3e/h/s3eThread.h'
p2254
sbsS'ucontext.h'
p2255
g303
(g1413
g305
Ntp2256
Rp2257
(dp2258
g1417
g1425
sg1418
g1447
sg329
S'c:/marmalade/7.4/s3e/h/std/ucontext.h'
p2259
sbsS'time.h'
p2260
g303
(g1413
g305
Ntp2261
Rp2262
(dp2263
g1417
g1425
sg1418
g1447
sg329
S'c:/marmalade/7.4/s3e/h/std/time.h'
p2264
sbsS'jchuff.h'
p2265
g303
(g1413
g305
Ntp2266
Rp2267
(dp2268
g1417
g1034
sg1418
g1505
sg329
g1037
sbsS's3eSoundRecord.h'
p2269
g303
(g1413
g305
Ntp2270
Rp2271
(dp2272
g1417
g1425
sg1418
g1441
sg329
S'c:/marmalade/7.4/s3e/h/s3eSoundRecord.h'
p2273
sbsS'IwFibre.h'
p2274
g303
(g1413
g305
Ntp2275
Rp2276
(dp2277
g1417
g1296
sg1418
g1454
sg329
g1371
sbsS's3eVersion.h'
p2278
g303
(g1413
g305
Ntp2279
Rp2280
(dp2281
g1417
g1425
sg1418
g1441
sg329
S'c:/marmalade/7.4/s3e/h/s3eVersion.h'
p2282
sbsS'IwGxFontGlyph.h'
p2283
g303
(g1413
g305
Ntp2284
Rp2285
(dp2286
g1417
g1120
sg1418
g1419
sg329
g1121
sbsS's3eTypes.h'
p2287
g303
(g1413
g305
Ntp2288
Rp2289
(dp2290
g1417
g1425
sg1418
g1441
sg329
S'c:/marmalade/7.4/s3e/h/s3eTypes.h'
p2291
sbsS'signal_2.h'
p2292
g303
(g1413
g305
Ntp2293
Rp2294
(dp2295
g1417
g1425
sg1418
g1426
sg329
S'c:/marmalade/7.4/s3e/h/std/c++/signal.h'
p2296
sbsS'termios.h'
p2297
g303
(g1413
g305
Ntp2298
Rp2299
(dp2300
g1417
g1425
sg1418
g1447
sg329
S'c:/marmalade/7.4/s3e/h/std/termios.h'
p2301
sbsS'slist'
p2302
g303
(g1413
g305
Ntp2303
Rp2304
(dp2305
g1417
g1425
sg1418
g1426
sg329
S'c:/marmalade/7.4/s3e/h/std/c++/slist'
p2306
sbsS'cstdlib'
p2307
g303
(g1413
g305
Ntp2308
Rp2309
(dp2310
g1417
g1425
sg1418
g1426
sg329
S'c:/marmalade/7.4/s3e/h/std/c++/cstdlib'
p2311
sbsS's3eLocation.h'
p2312
g303
(g1413
g305
Ntp2313
Rp2314
(dp2315
g1417
g1425
sg1418
g1441
sg329
S'c:/marmalade/7.4/s3e/h/s3eLocation.h'
p2316
sbsS'IwMemBucketHelpers.h'
p2317
g303
(g1413
g305
Ntp2318
Rp2319
(dp2320
g1417
g1296
sg1418
g1454
sg329
g1343
sbsS's3eHash.h'
p2321
g303
(g1413
g305
Ntp2322
Rp2323
(dp2324
g1417
g1425
sg1418
g1441
sg329
S'c:/marmalade/7.4/s3e/h/s3eHash.h'
p2325
sbsS'IwGeomFMat.h'
p2326
g303
(g1413
g305
Ntp2327
Rp2328
(dp2329
g1417
g1142
sg1418
g1475
sg329
g1210
sbsS'type_traits.h'
p2330
g303
(g1413
g305
Ntp2331
Rp2332
(dp2333
g1417
g1425
sg1418
g1426
sg329
S'c:/marmalade/7.4/s3e/h/std/c++/type_traits.h'
p2334
sbsS'IwMenu.h'
p2335
g303
(g1413
g305
Ntp2336
Rp2337
(dp2338
g1417
g1296
sg1418
g1454
sg329
g1297
sbsS'IwResHandlerITX.h'
p2339
g303
(g1413
g305
Ntp2340
Rp2341
(dp2342
g1417
g1218
sg1418
g1670
sg329
g1216
sbsS'IwArray.h'
p2343
g303
(g1413
g305
Ntp2344
Rp2345
(dp2346
g1417
g1296
sg1418
g1454
sg329
g1361
sbsS'IwUTF8.h'
p2347
g303
(g1413
g305
Ntp2348
Rp2349
(dp2350
g1417
g1296
sg1418
g1454
sg329
g1365
sbsS'math_rvct.h'
p2351
g303
(g1413
g305
Ntp2352
Rp2353
(dp2354
g1417
g1425
sg1418
g1447
sg329
S'c:/marmalade/7.4/s3e/h/std/math_rvct.h'
p2355
sbsS'IwUtil.h'
p2356
g303
(g1413
g305
Ntp2357
Rp2358
(dp2359
g1417
g1296
sg1418
g1454
sg329
g1386
sbsS'IwFColour.h'
p2360
g303
(g1413
g305
Ntp2361
Rp2362
(dp2363
g1417
g1242
sg1418
g1547
sg329
g1253
sbsS'wctype.h'
p2364
g303
(g1413
g305
Ntp2365
Rp2366
(dp2367
g1417
g1425
sg1418
g1447
sg329
S'c:/marmalade/7.4/s3e/h/std/wctype.h'
p2368
sbsS'cstddef'
p2369
g303
(g1413
g305
Ntp2370
Rp2371
(dp2372
g1417
g1425
sg1418
g1426
sg329
S'c:/marmalade/7.4/s3e/h/std/c++/cstddef'
p2373
sbsS'assert.h'
p2374
g303
(g1413
g305
Ntp2375
Rp2376
(dp2377
g1417
g1425
sg1418
g1447
sg329
S'c:/marmalade/7.4/s3e/h/std/assert.h'
p2378
sbsS'mman.h'
p2379
g303
(g1413
g305
Ntp2380
Rp2381
(dp2382
g1417
g1425
sg1418
g1561
sg329
S'c:/marmalade/7.4/s3e/h/std/sys/mman.h'
p2383
sbsS'IwRandom.h'
p2384
g303
(g1413
g305
Ntp2385
Rp2386
(dp2387
g1417
g1296
sg1418
g1454
sg329
g1309
sbsS'libgen.h'
p2388
g303
(g1413
g305
Ntp2389
Rp2390
(dp2391
g1417
g1425
sg1418
g1447
sg329
S'c:/marmalade/7.4/s3e/h/std/libgen.h'
p2392
sbsS'utsname.h'
p2393
g303
(g1413
g305
Ntp2394
Rp2395
(dp2396
g1417
g1425
sg1418
g1561
sg329
S'c:/marmalade/7.4/s3e/h/std/sys/utsname.h'
p2397
sbsS'wait.h'
p2398
g303
(g1413
g305
Ntp2399
Rp2400
(dp2401
g1417
g1425
sg1418
g1561
sg329
S'c:/marmalade/7.4/s3e/h/std/sys/wait.h'
p2402
sbsS'param.h'
p2403
g303
(g1413
g305
Ntp2404
Rp2405
(dp2406
g1417
g1425
sg1418
g1561
sg329
S'c:/marmalade/7.4/s3e/h/std/sys/param.h'
p2407
sbsS'IwDivide.h'
p2408
g303
(g1413
g305
Ntp2409
Rp2410
(dp2411
g1417
g1296
sg1418
g1454
sg329
g1357
sbsS'IwResManager.h'
p2412
g303
(g1413
g305
Ntp2413
Rp2414
(dp2415
g1417
g1218
sg1418
g1670
sg329
g1221
sbsS'ostream'
p2416
g303
(g1413
g305
Ntp2417
Rp2418
(dp2419
g1417
g1425
sg1418
g1426
sg329
S'c:/marmalade/7.4/s3e/h/std/c++/ostream'
p2420
sbsS'cwctype'
p2421
g303
(g1413
g305
Ntp2422
Rp2423
(dp2424
g1417
g1425
sg1418
g1426
sg329
S'c:/marmalade/7.4/s3e/h/std/c++/cwctype'
p2425
sbsS'set'
p2426
g303
(g1413
g305
Ntp2427
Rp2428
(dp2429
g1417
g1425
sg1418
g1426
sg329
S'c:/marmalade/7.4/s3e/h/std/c++/set'
p2430
sbsS'IwGeomSQuat.h'
p2431
g303
(g1413
g305
Ntp2432
Rp2433
(dp2434
g1417
g1142
sg1418
g1475
sg329
g1186
sbsS'locale'
p2435
g303
(g1413
g305
Ntp2436
Rp2437
(dp2438
g1417
g1425
sg1418
g1426
sg329
S'c:/marmalade/7.4/s3e/h/std/c++/locale'
p2439
sbsS'cstdio'
p2440
g303
(g1413
g305
Ntp2441
Rp2442
(dp2443
g1417
g1425
sg1418
g1426
sg329
S'c:/marmalade/7.4/s3e/h/std/c++/cstdio'
p2444
sbsS'cdjpeg.h'
p2445
g303
(g1413
g305
Ntp2446
Rp2447
(dp2448
g1417
g1034
sg1418
g1505
sg329
g1041
sbsS'IwList.h'
p2449
g303
(g1413
g305
Ntp2450
Rp2451
(dp2452
g1417
g1296
sg1418
g1454
sg329
g1325
sbsS'inttypes.h'
p2453
g303
(g1413
g305
Ntp2454
Rp2455
(dp2456
g1417
g1425
sg1418
g1447
sg329
S'c:/marmalade/7.4/s3e/h/std/inttypes.h'
p2457
sbsS'dirent.h'
p2458
g303
(g1413
g305
Ntp2459
Rp2460
(dp2461
g1417
g1425
sg1418
g1447
sg329
S'c:/marmalade/7.4/s3e/h/std/dirent.h'
p2462
sbsS'IwGeomVec3.h'
p2463
g303
(g1413
g305
Ntp2464
Rp2465
(dp2466
g1417
g1142
sg1418
g1475
sg329
g1180
sbsS'transupp.h'
p2467
g303
(g1413
g305
Ntp2468
Rp2469
(dp2470
g1417
g1034
sg1418
g1505
sg329
g1053
sbsS'IwMath.h'
p2471
g303
(g1413
g305
Ntp2472
Rp2473
(dp2474
g1417
g1296
sg1418
g1454
sg329
g1369
sbsS'IwGeomQuat.h'
p2475
g303
(g1413
g305
Ntp2476
Rp2477
(dp2478
g1417
g1142
sg1418
g1475
sg329
g1162
sbsS'glplatform.h'
p2479
g303
(g1413
g305
Ntp2480
Rp2481
(dp2482
g1417
g1425
sg1418
g1965
sg329
S'c:/marmalade/7.4/s3e/h/GLES/glplatform.h'
p2483
sbsS'bitset'
p2484
g303
(g1413
g305
Ntp2485
Rp2486
(dp2487
g1417
g1425
sg1418
g1426
sg329
S'c:/marmalade/7.4/s3e/h/std/c++/bitset'
p2488
sbsS'alloca.h'
p2489
g303
(g1413
g305
Ntp2490
Rp2491
(dp2492
g1417
g1425
sg1418
g1447
sg329
S'c:/marmalade/7.4/s3e/h/std/alloca.h'
p2493
sbsS'IwResHandler.h'
p2494
g303
(g1413
g305
Ntp2495
Rp2496
(dp2497
g1417
g1218
sg1418
g1670
sg329
g1234
sbsS'IwResHandlerMTL.h'
p2498
g303
(g1413
g305
Ntp2499
Rp2500
(dp2501
g1417
g1242
sg1418
g1547
sg329
g1271
sbsS'IwRuntime.h'
p2502
g303
(g1413
g305
Ntp2503
Rp2504
(dp2505
g1417
g1296
sg1418
g1454
sg329
g1341
sbsS'limits'
p2506
g303
(g1413
g305
Ntp2507
Rp2508
(dp2509
g1417
g1425
sg1418
g1426
sg329
S'c:/marmalade/7.4/s3e/h/std/c++/limits'
p2510
sbsS'IwGeomBBox.h'
p2511
g303
(g1413
g305
Ntp2512
Rp2513
(dp2514
g1417
g1142
sg1418
g1475
sg329
g1192
sbsS's3eContacts.h'
p2515
g303
(g1413
g305
Ntp2516
Rp2517
(dp2518
g1417
g1425
sg1418
g1441
sg329
S'c:/marmalade/7.4/s3e/h/s3eContacts.h'
p2519
sbsS's3eLicense.h'
p2520
g303
(g1413
g305
Ntp2521
Rp2522
(dp2523
g1417
g1425
sg1418
g1441
sg329
S'c:/marmalade/7.4/s3e/h/s3eLicense.h'
p2524
sbsS'iwgx.config.txt'
p2525
g303
(g1413
g305
Ntp2526
Rp2527
(dp2528
g1417
g1242
sg1418
g1547
sg329
g1277
sbsS'IwTextParser.h'
p2529
g303
(g1413
g305
Ntp2530
Rp2531
(dp2532
g1417
g1296
sg1418
g1454
sg329
g1294
sbsS's3eTimer.h'
p2533
g303
(g1413
g305
Ntp2534
Rp2535
(dp2536
g1417
g1425
sg1418
g1441
sg329
S'c:/marmalade/7.4/s3e/h/s3eTimer.h'
p2537
sbsS'IwGeomVec.h'
p2538
g303
(g1413
g305
Ntp2539
Rp2540
(dp2541
g1417
g1142
sg1418
g1475
sg329
g1170
sbsS'IwSerialise.h'
p2542
g303
(g1413
g305
Ntp2543
Rp2544
(dp2545
g1417
g1296
sg1418
g1454
sg329
g1327
sbsS'cstdarg'
p2546
g303
(g1413
g305
Ntp2547
Rp2548
(dp2549
g1417
g1425
sg1418
g1426
sg329
S'c:/marmalade/7.4/s3e/h/std/c++/cstdarg'
p2550
sbsS'gl2ext.h'
p2551
g303
(g1413
g305
Ntp2552
Rp2553
(dp2554
g1417
g1425
sg1418
g1662
sg329
S'c:/marmalade/7.4/s3e/h/GLES2/gl2ext.h'
p2555
sbsS'IwChar.h'
p2556
g303
(g1413
g305
Ntp2557
Rp2558
(dp2559
g1417
g1296
sg1418
g1454
sg329
g1347
sbsS's3eSound.h'
p2560
g303
(g1413
g305
Ntp2561
Rp2562
(dp2563
g1417
g1425
sg1418
g1441
sg329
S'c:/marmalade/7.4/s3e/h/s3eSound.h'
p2564
sbsS'IwVariableBitField.h'
p2565
g303
(g1413
g305
Ntp2566
Rp2567
(dp2568
g1417
g1296
sg1418
g1454
sg329
g1392
sbsS'exception.h'
p2569
g303
(g1413
g305
Ntp2570
Rp2571
(dp2572
g1417
g1425
sg1418
g1426
sg329
S'c:/marmalade/7.4/s3e/h/std/c++/exception.h'
p2573
sbsS'iwgeom.config.txt'
p2574
g303
(g1413
g305
Ntp2575
Rp2576
(dp2577
g1417
g1142
sg1418
g1475
sg329
g1140
sbsS'iwgx.mkf'
p2578
g303
(g1413
g305
Ntp2579
Rp2580
(dp2581
g1417
g1283
sg1418
g1547
sg329
g1281
sbsS'gl.h'
p2582
g303
(g1413
g305
Ntp2583
Rp2584
(dp2585
g1417
g1425
sg1418
g1965
sg329
S'c:/marmalade/7.4/s3e/h/GLES/gl.h'
p2586
sbsS'zlib.h'
p2587
g303
(g1413
g305
Ntp2588
Rp2589
(dp2590
g1417
g1401
sg1418
g2066
sg329
g1402
sbsS'temp_defines_release.h'
p2591
g303
(g1413
g305
Ntp2592
Rp2593
(dp2594
g1417
(lp2595
sg1418
(lp2596
S"'generated files'"
p2597
asg329
S'e:/Documents/Michiel/Programmeren/Marmalade/MVSStage1/build_mvsstage1_vc12x/temp_defines_release.h'
p2598
sbsS'iwgl.mkf'
p2599
g303
(g1413
g305
Ntp2600
Rp2601
(dp2602
g1417
g1096
sg1418
g1435
sg329
g1094
sbsS'IwColour.h'
p2603
g303
(g1413
g305
Ntp2604
Rp2605
(dp2606
g1417
g1242
sg1418
g1547
sg329
g1255
sbsS's3eLibrary.h'
p2607
g303
(g1413
g305
Ntp2608
Rp2609
(dp2610
g1417
g1425
sg1418
g1630
sg329
S'c:/marmalade/7.4/s3e/h/ext/s3eLibrary.h'
p2611
sbsS'types.h'
p2612
g303
(g1413
g305
Ntp2613
Rp2614
(dp2615
g1417
g1425
sg1418
g1561
sg329
S'c:/marmalade/7.4/s3e/h/std/sys/types.h'
p2616
sbsS'ifaddrs.h'
p2617
g303
(g1413
g305
Ntp2618
Rp2619
(dp2620
g1417
g1425
sg1418
g1447
sg329
S'c:/marmalade/7.4/s3e/h/std/ifaddrs.h'
p2621
sbsS'strstream'
p2622
g303
(g1413
g305
Ntp2623
Rp2624
(dp2625
g1417
g1425
sg1418
g1426
sg329
S'c:/marmalade/7.4/s3e/h/std/c++/strstream'
p2626
sbsS'exception'
p2627
g303
(g1413
g305
Ntp2628
Rp2629
(dp2630
g1417
g1425
sg1418
g1426
sg329
S'c:/marmalade/7.4/s3e/h/std/c++/exception'
p2631
sbsS'rlocks.h'
p2632
g303
(g1413
g305
Ntp2633
Rp2634
(dp2635
g1417
g1425
sg1418
g1426
sg329
S'c:/marmalade/7.4/s3e/h/std/c++/rlocks.h'
p2636
sbsS'ioctl.h'
p2637
g303
(g1413
g305
Ntp2638
Rp2639
(dp2640
g1417
g1425
sg1418
g1561
sg329
S'c:/marmalade/7.4/s3e/h/std/sys/ioctl.h'
p2641
sbsS'rope'
p2642
g303
(g1413
g305
Ntp2643
Rp2644
(dp2645
g1417
g1425
sg1418
g1426
sg329
S'c:/marmalade/7.4/s3e/h/std/c++/rope'
p2646
sbsS'jinclude.h'
p2647
g303
(g1413
g305
Ntp2648
Rp2649
(dp2650
g1417
g1034
sg1418
g1505
sg329
g1043
sbsS'IwEvent.h'
p2651
g303
(g1413
g305
Ntp2652
Rp2653
(dp2654
g1417
g1296
sg1418
g1454
sg329
g1367
sbsS'IwOptimiseSize.h'
p2655
g303
(g1413
g305
Ntp2656
Rp2657
(dp2658
g1417
g1296
sg1418
g1454
sg329
g1394
sbsS'iwgxfont_public.defines.txt'
p2659
g303
(g1413
g305
Ntp2660
Rp2661
(dp2662
g1417
g1120
sg1418
g1419
sg329
g1118
sbsS'iconv.h'
p2663
g303
(g1413
g305
Ntp2664
Rp2665
(dp2666
g1417
g1425
sg1418
g1447
sg329
S'c:/marmalade/7.4/s3e/h/std/iconv.h'
p2667
sbsS'sendfile.h'
p2668
g303
(g1413
g305
Ntp2669
Rp2670
(dp2671
g1417
g1425
sg1418
g1561
sg329
S'c:/marmalade/7.4/s3e/h/std/sys/sendfile.h'
p2672
sbsS'IwGeomSphere.h'
p2673
g303
(g1413
g305
Ntp2674
Rp2675
(dp2676
g1417
g1142
sg1418
g1475
sg329
g1200
sbsS'tiniconv.mkf'
p2677
g303
(g1413
g305
Ntp2678
Rp2679
(dp2680
g1417
g1071
sg1418
g1865
sg329
g1069
sbsS'jdct.h'
p2681
g303
(g1413
g305
Ntp2682
Rp2683
(dp2684
g1417
g1034
sg1418
g1505
sg329
g1049
sbsS'cctype'
p2685
g303
(g1413
g305
Ntp2686
Rp2687
(dp2688
g1417
g1425
sg1418
g1426
sg329
S'c:/marmalade/7.4/s3e/h/std/c++/cctype'
p2689
sbsS's3eConfig.h'
p2690
g303
(g1413
g305
Ntp2691
Rp2692
(dp2693
g1417
g1425
sg1418
g1441
sg329
S'c:/marmalade/7.4/s3e/h/s3eConfig.h'
p2694
sbsS'IwHashString.h'
p2695
g303
(g1413
g305
Ntp2696
Rp2697
(dp2698
g1417
g1296
sg1418
g1454
sg329
g1319
sbsS'stat.h'
p2699
g303
(g1413
g305
Ntp2700
Rp2701
(dp2702
g1417
g1425
sg1418
g1561
sg329
S'c:/marmalade/7.4/s3e/h/std/sys/stat.h'
p2703
sbsS'byteswap.h'
p2704
g303
(g1413
g305
Ntp2705
Rp2706
(dp2707
g1417
g1425
sg1418
g1447
sg329
S'c:/marmalade/7.4/s3e/h/std/byteswap.h'
p2708
sbsS'iwresmanager.mkf'
p2709
g303
(g1413
g305
Ntp2710
Rp2711
(dp2712
g1417
g1231
sg1418
g1670
sg329
g1229
sbsS'IwUtilInitTerm.h'
p2713
g303
(g1413
g305
Ntp2714
Rp2715
(dp2716
g1417
g1296
sg1418
g1454
sg329
g1299
sbsS'pthread_1.h'
p2717
g303
(g1413
g305
Ntp2718
Rp2719
(dp2720
g1417
g1425
sg1418
g1426
sg329
S'c:/marmalade/7.4/s3e/h/std/c++/pthread.h'
p2721
sbsS'iw2d.mkf'
p2722
g303
(g1413
g305
Ntp2723
Rp2724
(dp2725
g1417
g1115
sg1418
g1510
sg329
g1113
sbsS'complex'
p2726
g303
(g1413
g305
Ntp2727
Rp2728
(dp2729
g1417
g1425
sg1418
g1426
sg329
S'c:/marmalade/7.4/s3e/h/std/c++/complex'
p2730
sbsS's3e.icf'
p2731
g303
(g1413
g305
Ntp2732
Rp2733
(dp2734
g1417
g1425
sg1418
g1441
sg329
S'c:/marmalade/7.4/s3e/s3e.icf'
p2735
sbsS'sem.h'
p2736
g303
(g1413
g305
Ntp2737
Rp2738
(dp2739
g1417
g1425
sg1418
g1561
sg329
S'c:/marmalade/7.4/s3e/h/std/sys/sem.h'
p2740
sbsS'IwGxFontState.h'
p2741
g303
(g1413
g305
Ntp2742
Rp2743
(dp2744
g1417
g1120
sg1418
g1419
sg329
g1131
sbsS'stdio.h'
p2745
g303
(g1413
g305
Ntp2746
Rp2747
(dp2748
g1417
g1425
sg1418
g1447
sg329
S'c:/marmalade/7.4/s3e/h/std/stdio.h'
p2749
sbsS'jmemsys.h'
p2750
g303
(g1413
g305
Ntp2751
Rp2752
(dp2753
g1417
g1034
sg1418
g1505
sg329
g1035
sbsS'ios'
p2754
g303
(g1413
g305
Ntp2755
Rp2756
(dp2757
g1417
g1425
sg1418
g1426
sg329
S'c:/marmalade/7.4/s3e/h/std/c++/ios'
p2758
sbsS'IwGeomFVec4.h'
p2759
g303
(g1413
g305
Ntp2760
Rp2761
(dp2762
g1417
g1142
sg1418
g1475
sg329
g1160
sbsS'stack'
p2763
g303
(g1413
g305
Ntp2764
Rp2765
(dp2766
g1417
g1425
sg1418
g1426
sg329
S'c:/marmalade/7.4/s3e/h/std/c++/stack'
p2767
sbsS'new.h'
p2768
g303
(g1413
g305
Ntp2769
Rp2770
(dp2771
g1417
g1425
sg1418
g1426
sg329
S'c:/marmalade/7.4/s3e/h/std/c++/new.h'
p2772
sbsS's3eEMail.h'
p2773
g303
(g1413
g305
Ntp2774
Rp2775
(dp2776
g1417
g1425
sg1418
g1630
sg329
S'c:/marmalade/7.4/s3e/h/ext/s3eEMail.h'
p2777
sbsS's3eVideo.h'
p2778
g303
(g1413
g305
Ntp2779
Rp2780
(dp2781
g1417
g1425
sg1418
g1441
sg329
S'c:/marmalade/7.4/s3e/h/s3eVideo.h'
p2782
sbsS'pngconf.h'
p2783
g303
(g1413
g305
Ntp2784
Rp2785
(dp2786
g1417
g1023
sg1418
g2121
sg329
g1024
sbsS'pwd.h'
p2787
g303
(g1413
g305
Ntp2788
Rp2789
(dp2790
g1417
g1425
sg1418
g1447
sg329
S'c:/marmalade/7.4/s3e/h/std/pwd.h'
p2791
sbsS'IwOptimiseThumb.h'
p2792
g303
(g1413
g305
Ntp2793
Rp2794
(dp2795
g1417
g1296
sg1418
g1454
sg329
g1384
sbsS'gl3.h'
p2796
g303
(g1413
g305
Ntp2797
Rp2798
(dp2799
g1417
g1425
sg1418
g1717
sg329
S'c:/marmalade/7.4/s3e/h/GLES3/gl3.h'
p2800
sbsS'IwClip.h'
p2801
g303
(g1413
g305
Ntp2802
Rp2803
(dp2804
g1417
g1242
sg1418
g1547
sg329
g1259
sbsS'iwresmanager.config.txt'
p2805
g303
(g1413
g305
Ntp2806
Rp2807
(dp2808
g1417
g1218
sg1418
g1670
sg329
g1236
sbsS'IwGxShaderTechnique.h'
p2809
g303
(g1413
g305
Ntp2810
Rp2811
(dp2812
g1417
g1242
sg1418
g1547
sg329
g1286
sbsS'IwCore.h'
p2813
g303
(g1413
g305
Ntp2814
Rp2815
(dp2816
g1417
g1296
sg1418
g1454
sg329
g1313
sbsS'cfloat'
p2817
g303
(g1413
g305
Ntp2818
Rp2819
(dp2820
g1417
g1425
sg1418
g1426
sg329
S'c:/marmalade/7.4/s3e/h/std/c++/cfloat'
p2821
sbsS'IwGeomMat2D.h'
p2822
g303
(g1413
g305
Ntp2823
Rp2824
(dp2825
g1417
g1142
sg1418
g1475
sg329
g1198
sbsS'IwAllocator.h'
p2826
g303
(g1413
g305
Ntp2827
Rp2828
(dp2829
g1417
g1296
sg1418
g1454
sg329
g1333
sbsS'IwPath.h'
p2830
g303
(g1413
g305
Ntp2831
Rp2832
(dp2833
g1417
g1296
sg1418
g1454
sg329
g1388
sbsS'iwgxfont.mkf'
p2834
g303
(g1413
g305
Ntp2835
Rp2836
(dp2837
g1417
g1137
sg1418
g1419
sg329
g1135
sbsS'IwTexture.h'
p2838
g303
(g1413
g305
Ntp2839
Rp2840
(dp2841
g1417
g1242
sg1418
g1547
sg329
g1251
sbsS'IwGeomVec.h.tpl'
p2842
g303
(g1413
g305
Ntp2843
Rp2844
(dp2845
g1417
g1142
sg1418
g1475
sg329
g1150
sbsS's3eAccelerometer.h'
p2846
g303
(g1413
g305
Ntp2847
Rp2848
(dp2849
g1417
g1425
sg1418
g1441
sg329
S'c:/marmalade/7.4/s3e/h/s3eAccelerometer.h'
p2850
sbsS'setjmp.h'
p2851
g303
(g1413
g305
Ntp2852
Rp2853
(dp2854
g1417
g1425
sg1418
g1447
sg329
S'c:/marmalade/7.4/s3e/h/std/setjmp.h'
p2855
sbsS'IwFile.h'
p2856
g303
(g1413
g305
Ntp2857
Rp2858
(dp2859
g1417
g1296
sg1418
g1454
sg329
g1339
sbsS'IwTextParseable.h'
p2860
g303
(g1413
g305
Ntp2861
Rp2862
(dp2863
g1417
g1296
sg1418
g1454
sg329
g1337
sbsS'istream.h'
p2864
g303
(g1413
g305
Ntp2865
Rp2866
(dp2867
g1417
g1425
sg1418
g1426
sg329
S'c:/marmalade/7.4/s3e/h/std/c++/istream.h'
p2868
sbsS'stdint.h'
p2869
g303
(g1413
g305
Ntp2870
Rp2871
(dp2872
g1417
g1425
sg1418
g1447
sg329
S'c:/marmalade/7.4/s3e/h/std/stdint.h'
p2873
sbsS'semaphore.h'
p2874
g303
(g1413
g305
Ntp2875
Rp2876
(dp2877
g1417
g1425
sg1418
g1447
sg329
S'c:/marmalade/7.4/s3e/h/std/semaphore.h'
p2878
sbsS'ctime'
p2879
g303
(g1413
g305
Ntp2880
Rp2881
(dp2882
g1417
g1425
sg1418
g1426
sg329
S'c:/marmalade/7.4/s3e/h/std/c++/ctime'
p2883
sbsS'sstream'
p2884
g303
(g1413
g305
Ntp2885
Rp2886
(dp2887
g1417
g1425
sg1418
g1426
sg329
S'c:/marmalade/7.4/s3e/h/std/c++/sstream'
p2888
sbsS'IwGeomFBBox.h'
p2889
g303
(g1413
g305
Ntp2890
Rp2891
(dp2892
g1417
g1142
sg1418
g1475
sg329
g1164
sbsS'IwDebugPrim.h'
p2893
g303
(g1413
g305
Ntp2894
Rp2895
(dp2896
g1417
g1242
sg1418
g1547
sg329
g1240
sbsS'IwGxFontContainer.h'
p2897
g303
(g1413
g305
Ntp2898
Rp2899
(dp2900
g1417
g1120
sg1418
g1419
sg329
g1133
sbsS'IwGeomSVec3.h'
p2901
g303
(g1413
g305
Ntp2902
Rp2903
(dp2904
g1417
g1142
sg1418
g1475
sg329
g1176
sbsS'cassert'
p2905
g303
(g1413
g305
Ntp2906
Rp2907
(dp2908
g1417
g1425
sg1418
g1426
sg329
S'c:/marmalade/7.4/s3e/h/std/c++/cassert'
p2909
sbsS'IwGeomFVec3.h'
p2910
g303
(g1413
g305
Ntp2911
Rp2912
(dp2913
g1417
g1142
sg1418
g1475
sg329
g1202
sbsS'streambuf'
p2914
g303
(g1413
g305
Ntp2915
Rp2916
(dp2917
g1417
g1425
sg1418
g1426
sg329
S'c:/marmalade/7.4/s3e/h/std/c++/streambuf'
p2918
sbsS's3eMetrics.h'
p2919
g303
(g1413
g305
Ntp2920
Rp2921
(dp2922
g1417
g1425
sg1418
g1630
sg329
S'c:/marmalade/7.4/s3e/h/ext/s3eMetrics.h'
p2923
sbsS'IwGxFont.h'
p2924
g303
(g1413
g305
Ntp2925
Rp2926
(dp2927
g1417
g1120
sg1418
g1419
sg329
g1125
sbsS's3eSecureStorage.h'
p2928
g303
(g1413
g305
Ntp2929
Rp2930
(dp2931
g1417
g1425
sg1418
g1441
sg329
S'c:/marmalade/7.4/s3e/h/s3eSecureStorage.h'
p2932
sbsS'string.h'
p2933
g303
(g1413
g305
Ntp2934
Rp2935
(dp2936
g1417
g1425
sg1418
g1447
sg329
S'c:/marmalade/7.4/s3e/h/std/string.h'
p2937
sbsS'IwResource.h'
p2938
g303
(g1413
g305
Ntp2939
Rp2940
(dp2941
g1417
g1296
sg1418
g1454
sg329
g1311
sbsS'IwGeomSVec2.h'
p2942
g303
(g1413
g305
Ntp2943
Rp2944
(dp2945
g1417
g1142
sg1418
g1475
sg329
g1196
sbsS'libjpeg.mkf'
p2946
g303
(g1413
g305
Ntp2947
Rp2948
(dp2949
g1417
g1063
sg1418
(lp2950
g1029
asg329
g1061
sbsS'IwGxDebug.h'
p2951
g303
(g1413
g305
Ntp2952
Rp2953
(dp2954
g1417
g1242
sg1418
g1547
sg329
g1265
sbsS'pthread_types.h'
p2955
g303
(g1413
g305
Ntp2956
Rp2957
(dp2958
g1417
g1425
sg1418
g1447
sg329
S'c:/marmalade/7.4/s3e/h/std/pthread_types.h'
p2959
sbsS'iomanip.h'
p2960
g303
(g1413
g305
Ntp2961
Rp2962
(dp2963
g1417
g1425
sg1418
g1426
sg329
S'c:/marmalade/7.4/s3e/h/std/c++/iomanip.h'
p2964
sbsS'IwKeymap.h'
p2965
g303
(g1413
g305
Ntp2966
Rp2967
(dp2968
g1417
g1296
sg1418
g1454
sg329
g1375
sbsS'IwDebug.h'
p2969
g303
(g1413
g305
Ntp2970
Rp2971
(dp2972
g1417
g1296
sg1418
g1454
sg329
g1303
sbsS's3eIOSBackgroundAudio.h'
p2973
g303
(g1413
g305
Ntp2974
Rp2975
(dp2976
g1417
g1425
sg1418
g1630
sg329
S'c:/marmalade/7.4/s3e/h/ext/s3eIOSBackgroundAudio.h'
p2977
sbsS'IwGeomMenu.h'
p2978
g303
(g1413
g305
Ntp2979
Rp2980
(dp2981
g1417
g1142
sg1418
g1475
sg329
g1156
sbsS'IwDivTable.h'
p2982
g303
(g1413
g305
Ntp2983
Rp2984
(dp2985
g1417
g1296
sg1418
g1454
sg329
g1305
sbsS'ctype.h'
p2986
g303
(g1413
g305
Ntp2987
Rp2988
(dp2989
g1417
g1425
sg1418
g1447
sg329
S'c:/marmalade/7.4/s3e/h/std/ctype.h'
p2990
sbsS'IwGeomMat.h'
p2991
g303
(g1413
g305
Ntp2992
Rp2993
(dp2994
g1417
g1142
sg1418
g1475
sg329
g1178
sbsS'IwResGroup.h'
p2995
g303
(g1413
g305
Ntp2996
Rp2997
(dp2998
g1417
g1218
sg1418
g1670
sg329
g1219
sbsS'signal_1.h'
p2999
g303
(g1413
g305
Ntp3000
Rp3001
(dp3002
g1417
g1425
sg1418
g1561
sg329
S'c:/marmalade/7.4/s3e/h/std/sys/signal.h'
p3003
sbsS'main.cpp'
p3004
g303
(g1413
g305
Ntp3005
Rp3006
(dp3007
g1417
g1409
sg1418
(lp3008
sg329
g1407
sbsS'shm.h'
p3009
g303
(g1413
g305
Ntp3010
Rp3011
(dp3012
g1417
g1425
sg1418
g1561
sg329
S'c:/marmalade/7.4/s3e/h/std/sys/shm.h'
p3013
sbsS'IwManagedList.h'
p3014
g303
(g1413
g305
Ntp3015
Rp3016
(dp3017
g1417
g1296
sg1418
g1454
sg329
g1323
sbsS'prctl.h'
p3018
g303
(g1413
g305
Ntp3019
Rp3020
(dp3021
g1417
g1425
sg1418
g1561
sg329
S'c:/marmalade/7.4/s3e/h/std/sys/prctl.h'
p3022
sbsS'un.h'
p3023
g303
(g1413
g305
Ntp3024
Rp3025
(dp3026
g1417
g1425
sg1418
g1561
sg329
S'c:/marmalade/7.4/s3e/h/std/sys/un.h'
p3027
sbsS'temp_defines_debug.h'
p3028
g303
(g1413
g305
Ntp3029
Rp3030
(dp3031
g1417
(lp3032
sg1418
(lp3033
g2597
asg329
S'e:/Documents/Michiel/Programmeren/Marmalade/MVSStage1/build_mvsstage1_vc12x/temp_defines_debug.h'
p3034
sbsS'utility'
p3035
g303
(g1413
g305
Ntp3036
Rp3037
(dp3038
g1417
g1425
sg1418
g1426
sg329
S'c:/marmalade/7.4/s3e/h/std/c++/utility'
p3039
sbsS'IwGeomLegacy.h'
p3040
g303
(g1413
g305
Ntp3041
Rp3042
(dp3043
g1417
g1142
sg1418
g1475
sg329
g1184
sbsS'IwTPage.h'
p3044
g303
(g1413
g305
Ntp3045
Rp3046
(dp3047
g1417
g1242
sg1418
g1547
sg329
g1261
sbsS'IwResSerialise.h'
p3048
g303
(g1413
g305
Ntp3049
Rp3050
(dp3051
g1417
g1218
sg1418
g1670
sg329
g1225
sbsS's3eCrypto.h'
p3052
g303
(g1413
g305
Ntp3053
Rp3054
(dp3055
g1417
g1425
sg1418
g1441
sg329
S'c:/marmalade/7.4/s3e/h/s3eCrypto.h'
p3056
sbsS's3eKeyboard.h'
p3057
g303
(g1413
g305
Ntp3058
Rp3059
(dp3060
g1417
g1425
sg1418
g1441
sg329
S'c:/marmalade/7.4/s3e/h/s3eKeyboard.h'
p3061
sbsS'fcntl.h'
p3062
g303
(g1413
g305
Ntp3063
Rp3064
(dp3065
g1417
g1425
sg1418
g1447
sg329
S'c:/marmalade/7.4/s3e/h/std/fcntl.h'
p3066
sbsS'memory.h'
p3067
g303
(g1413
g305
Ntp3068
Rp3069
(dp3070
g1417
g1425
sg1418
g1447
sg329
S'c:/marmalade/7.4/s3e/h/std/memory.h'
p3071
sbsS'pthread.h'
p3072
g303
(g1413
g305
Ntp3073
Rp3074
(dp3075
g1417
g1425
sg1418
g1447
sg329
S'c:/marmalade/7.4/s3e/h/std/pthread.h'
p3076
sbsS'IwGeomIntersect.h'
p3077
g303
(g1413
g305
Ntp3078
Rp3079
(dp3080
g1417
g1142
sg1418
g1475
sg329
g1194
sbsS'algorithm'
p3081
g303
(g1413
g305
Ntp3082
Rp3083
(dp3084
g1417
g1425
sg1418
g1426
sg329
S'c:/marmalade/7.4/s3e/h/std/c++/algorithm'
p3085
sbsS'egl_1.h'
p3086
g303
(g1413
g305
Ntp3087
Rp3088
(dp3089
g1417
g1425
sg1418
g1965
sg329
S'c:/marmalade/7.4/s3e/h/GLES/egl.h'
p3090
sbsS'ostream.h'
p3091
g303
(g1413
g305
Ntp3092
Rp3093
(dp3094
g1417
g1425
sg1418
g1426
sg329
S'c:/marmalade/7.4/s3e/h/std/c++/ostream.h'
p3095
sbsS'stl_user_config.h'
p3096
g303
(g1413
g305
Ntp3097
Rp3098
(dp3099
g1417
g1425
sg1418
g1426
sg329
S'c:/marmalade/7.4/s3e/h/std/c++/stl_user_config.h'
p3100
sbsS'IwProfileMenu.h'
p3101
g303
(g1413
g305
Ntp3102
Rp3103
(dp3104
g1417
g1296
sg1418
g1454
sg329
g1321
sbsS'MarmaladeVersion.h'
p3105
g303
(g1413
g305
Ntp3106
Rp3107
(dp3108
g1417
g1425
sg1418
g1441
sg329
S'c:/marmalade/7.4/s3e/h/MarmaladeVersion.h'
p3109
sbsS'gl3platform.h'
p3110
g303
(g1413
g305
Ntp3111
Rp3112
(dp3113
g1417
g1425
sg1418
g1717
sg329
S'c:/marmalade/7.4/s3e/h/GLES3/gl3platform.h'
p3114
sbsS'ios.h'
p3115
g303
(g1413
g305
Ntp3116
Rp3117
(dp3118
g1417
g1425
sg1418
g1426
sg329
S'c:/marmalade/7.4/s3e/h/std/c++/ios.h'
p3119
sbsS'IwImageHelper.h'
p3120
g303
(g1413
g305
Ntp3121
Rp3122
(dp3123
g1417
g1296
sg1418
g1454
sg329
g1353
sbsS'hash_set'
p3124
g303
(g1413
g305
Ntp3125
Rp3126
(dp3127
g1417
g1425
sg1418
g1426
sg329
S'c:/marmalade/7.4/s3e/h/std/c++/hash_set'
p3128
sbsS'IwGeomFQuat.h'
p3129
g303
(g1413
g305
Ntp3130
Rp3131
(dp3132
g1417
g1142
sg1418
g1475
sg329
g1154
sbsS'jmorecfg.h'
p3133
g303
(g1413
g305
Ntp3134
Rp3135
(dp3136
g1417
g1034
sg1418
g1505
sg329
g1059
sbsS'eglplatform.h'
p3137
g303
(g1413
g305
Ntp3138
Rp3139
(dp3140
g1417
g1425
sg1418
g1749
sg329
S'c:/marmalade/7.4/s3e/h/EGL/eglplatform.h'
p3141
sbsS'stdbool.h'
p3142
g303
(g1413
g305
Ntp3143
Rp3144
(dp3145
g1417
g1425
sg1418
g1447
sg329
S'c:/marmalade/7.4/s3e/h/std/stdbool.h'
p3146
sbsS'math_gcc.h'
p3147
g303
(g1413
g305
Ntp3148
Rp3149
(dp3150
g1417
g1425
sg1418
g1447
sg329
S'c:/marmalade/7.4/s3e/h/std/math_gcc.h'
p3151
sbsS's3eMemory.h'
p3152
g303
(g1413
g305
Ntp3153
Rp3154
(dp3155
g1417
g1425
sg1418
g1441
sg329
S'c:/marmalade/7.4/s3e/h/s3eMemory.h'
p3156
sbsS'strings.h'
p3157
g303
(g1413
g305
Ntp3158
Rp3159
(dp3160
g1417
g1425
sg1418
g1447
sg329
S'c:/marmalade/7.4/s3e/h/std/strings.h'
p3161
sbsS's3eFile.h'
p3162
g303
(g1413
g305
Ntp3163
Rp3164
(dp3165
g1417
g1425
sg1418
g1441
sg329
S'c:/marmalade/7.4/s3e/h/s3eFile.h'
p3166
sbsS'IwGxTypes.h'
p3167
g303
(g1413
g305
Ntp3168
Rp3169
(dp3170
g1417
g1242
sg1418
g1547
sg329
g1288
sbsS'cerrno'
p3171
g303
(g1413
g305
Ntp3172
Rp3173
(dp3174
g1417
g1425
sg1418
g1426
sg329
S'c:/marmalade/7.4/s3e/h/std/c++/cerrno'
p3175
sbsS'resource.h'
p3176
g303
(g1413
g305
Ntp3177
Rp3178
(dp3179
g1417
g1425
sg1418
g1561
sg329
S'c:/marmalade/7.4/s3e/h/std/sys/resource.h'
p3180
sbsS'clocale'
p3181
g303
(g1413
g305
Ntp3182
Rp3183
(dp3184
g1417
g1425
sg1418
g1426
sg329
S'c:/marmalade/7.4/s3e/h/std/c++/clocale'
p3185
sbsS'pvrtextool.mkf'
p3186
g303
(g1413
g305
Ntp3187
Rp3188
(dp3189
g1417
g1087
sg1418
g1997
sg329
g1085
sbsS'csetjmp'
p3190
g303
(g1413
g305
Ntp3191
Rp3192
(dp3193
g1417
g1425
sg1418
g1426
sg329
S'c:/marmalade/7.4/s3e/h/std/c++/csetjmp'
p3194
sbsS'netdb.h'
p3195
g303
(g1413
g305
Ntp3196
Rp3197
(dp3198
g1417
g1425
sg1418
g1447
sg329
S'c:/marmalade/7.4/s3e/h/std/netdb.h'
p3199
sbsS's3eAndroidJNI.h'
p3200
g303
(g1413
g305
Ntp3201
Rp3202
(dp3203
g1417
g1425
sg1418
g1630
sg329
S'c:/marmalade/7.4/s3e/h/ext/s3eAndroidJNI.h'
p3204
sbsS'stdexcept'
p3205
g303
(g1413
g305
Ntp3206
Rp3207
(dp3208
g1417
g1425
sg1418
g1426
sg329
S'c:/marmalade/7.4/s3e/h/std/c++/stdexcept'
p3209
sbsS'math.h'
p3210
g303
(g1413
g305
Ntp3211
Rp3212
(dp3213
g1417
g1425
sg1418
g1447
sg329
S'c:/marmalade/7.4/s3e/h/std/math.h'
p3214
sbsS'cmath'
p3215
g303
(g1413
g305
Ntp3216
Rp3217
(dp3218
g1417
g1425
sg1418
g1426
sg329
S'c:/marmalade/7.4/s3e/h/std/c++/cmath'
p3219
sbsS'uio.h'
p3220
g303
(g1413
g305
Ntp3221
Rp3222
(dp3223
g1417
g1425
sg1418
g1561
sg329
S'c:/marmalade/7.4/s3e/h/std/sys/uio.h'
p3224
sbsS'IwUncopyable.h'
p3225
g303
(g1413
g305
Ntp3226
Rp3227
(dp3228
g1417
g1296
sg1418
g1454
sg329
g1345
sbssS'juice_build_type'
p3229
g4
sS'tests'
p3230
(lp3231
sS'project_name'
p3232
g311
sS'root_file'
p3233
g120
sS'current_root'
p3234
S'e:/Documents/Michiel/Programmeren/Marmalade/MVSStage1'
p3235
sS'dependencies'
p3236
(lp3237
sS'include_paths'
p3238
(lp3239
S'c:/marmalade/7.4/modules/iw2d/h'
p3240
aS'c:/marmalade/7.4/modules/iwgx/h'
p3241
aS'c:/marmalade/7.4/modules/iwgl/h'
p3242
aS'c:/marmalade/7.4/modules/iwutil/h'
p3243
aS'c:/marmalade/7.4/modules/third_party/libjpeg/h'
p3244
aS'c:/marmalade/7.4/modules/third_party/zlib/h'
p3245
aS'c:/marmalade/7.4/modules/third_party/libpng/h'
p3246
aS'c:/marmalade/7.4/modules/iwgeom/h'
p3247
aS'c:/marmalade/7.4/modules/iwresmanager/h'
p3248
aS'c:/marmalade/7.4/extensions/pvrtextool/h'
p3249
aS'c:/marmalade/7.4/modules/iwgxfont/h'
p3250
aS'c:/marmalade/7.4/modules/third_party/tiniconv/source'
p3251
aS'c:/marmalade/7.4/s3e/h'
p3252
aS'c:/marmalade/7.4/s3e/h/ext'
p3253
aS'c:/marmalade/7.4/s3e/h/std'
p3254
aS'c:/marmalade/7.4/s3e/h/std/c++'
p3255
aS'c:/marmalade/7.4/s3e/h/ext_legacy'
p3256
aS'c:/marmalade/7.4/s3e/h/legacy'
p3257
asS'weak_frameworks'
p3258
(lp3259
sS'extprojects'
p3260
(dp3261
sg559
(dp3262
g553
(lp3263
(S'e:/Documents/Michiel/Programmeren/Marmalade/MVSStage1/data/textures'
p3264
S'textures'
p3265
I0
tp3266
assS'macro_types'
p3267
(dp3268
g502
I1
sg503
I0
sg504
I0
sg505
I0
sg506
I0
sg507
I0
sg508
I0
sg509
I0
sg510
I0
sg512
I0
sg513
I0
sg514
I0
sg515
I0
sg517
I0
sg519
I0
sg520
I0
sg521
I0
sg522
I1
sg523
I0
sg524
I0
sg525
I0
sg526
I01
sg527
I1
sg528
I0
sg529
I0
sg530
I0
sg532
I0
sg533
I0
sg534
I0
ssS'commands'
p3269
(lp3270
sg561
(g1010
S'VC12X'
p3271
S'X86ARM'
p3272
tp3273
sS'build_libs'
p3274
(dp3275
sg563
g0
sS'frameworks'
p3276
(lp3277
sS'environ'
p3278
(dp3279
sS'target_name_debug'
p3280
g311
sS'builders'
p3281
(dp3282
g553
(dp3283
S'.S'
p3284
(dp3285
S'rvct'
p3286
(lp3287
S'.obj'
p3288
aS'echo ARM Assembling(RVCT) ${SOURCE}...'
p3289
aS'c:/marmalade/7.4/s3e\\rvct\\bin\\armasm -o ${TARGET} ${SOURCE}'
p3290
asg425
(lp3291
g3288
aS'echo ARM Assembling(GCC) ${SOURCE}...'
p3292
aS'c:/marmalade/7.4/s3e\\gcc\\bin\\arm-none-eabi-gcc -c -o ${TARGET} ${SOURCE}'
p3293
asS'ppu'
p3294
(lp3295
S'.a'
p3296
aS'echo PPU Assembling(SNC) ${SOURCE}...'
p3297
aS'c:/marmalade/7.4/s3e\\rvct\\bin\\armasm -o ${TARGET} ${SOURCE}'
p3298
assS'.s'
p3299
g3285
sS'.vp'
p3300
(lp3301
NaS'"C:/Marmalade/7.4/s3e/python/python.exe" "c:/marmalade/7.4/modules/iwgx/tools/compile_shaders.py" ${SOURCE}'
p3302
asssS'extproject_names'
p3303
(lp3304
sbtp3305
.